ARM GAS  C:\Users\PIERRE~1\AppData\Local\Temp\ccQb1ikf.s 			page 1


   1              		.cpu cortex-m0
   2              		.eabi_attribute 20, 1
   3              		.eabi_attribute 21, 1
   4              		.eabi_attribute 23, 3
   5              		.eabi_attribute 24, 1
   6              		.eabi_attribute 25, 1
   7              		.eabi_attribute 26, 1
   8              		.eabi_attribute 30, 1
   9              		.eabi_attribute 34, 0
  10              		.eabi_attribute 18, 4
  11              		.file	"main.c"
  12              		.text
  13              	.Ltext0:
  14              		.cfi_sections	.debug_frame
  15              		.section	.text.SystemClock_Config,"ax",%progbits
  16              		.align	1
  17              		.global	SystemClock_Config
  18              		.arch armv6s-m
  19              		.syntax unified
  20              		.code	16
  21              		.thumb_func
  22              		.fpu softvfp
  24              	SystemClock_Config:
  25              	.LFB41:
  26              		.file 1 "Core/Src/main.c"
   1:Core/Src/main.c **** /* USER CODE BEGIN Header */
   2:Core/Src/main.c **** /**
   3:Core/Src/main.c ****  ******************************************************************************
   4:Core/Src/main.c ****  * @file           : main.c
   5:Core/Src/main.c ****  * @brief          : Firmware for the pump board v1 (v2 tbr)
   6:Core/Src/main.c ****  ******************************************************************************
   7:Core/Src/main.c ****  * @attention
   8:Core/Src/main.c ****  *
   9:Core/Src/main.c ****  * <h2><center>&copy; Copyright (c) 2020 STMicroelectronics.
  10:Core/Src/main.c ****  * All rights reserved.</center></h2>
  11:Core/Src/main.c ****  *
  12:Core/Src/main.c ****  * This software component is licensed by ST under BSD 3-Clause license,
  13:Core/Src/main.c ****  * the "License"; You may not use this file except in compliance with the
  14:Core/Src/main.c ****  * License. You may obtain a copy of the License at:
  15:Core/Src/main.c ****  *                        opensource.org/licenses/BSD-3-Clause
  16:Core/Src/main.c ****  *
  17:Core/Src/main.c ****  ******************************************************************************
  18:Core/Src/main.c ****  */
  19:Core/Src/main.c **** /* USER CODE END Header */
  20:Core/Src/main.c **** /* Includes ------------------------------------------------------------------*/
  21:Core/Src/main.c **** #include "main.h"
  22:Core/Src/main.c **** #include "can.h"
  23:Core/Src/main.c **** #include "gpio.h"
  24:Core/Src/main.c **** 
  25:Core/Src/main.c **** /* Private includes ----------------------------------------------------------*/
  26:Core/Src/main.c **** /* USER CODE BEGIN Includes */
  27:Core/Src/main.c **** 
  28:Core/Src/main.c **** /* USER CODE END Includes */
  29:Core/Src/main.c **** 
  30:Core/Src/main.c **** /* Private typedef -----------------------------------------------------------*/
  31:Core/Src/main.c **** /* USER CODE BEGIN PTD */
  32:Core/Src/main.c **** 
ARM GAS  C:\Users\PIERRE~1\AppData\Local\Temp\ccQb1ikf.s 			page 2


  33:Core/Src/main.c **** /* USER CODE END PTD */
  34:Core/Src/main.c **** 
  35:Core/Src/main.c **** /* Private define ------------------------------------------------------------*/
  36:Core/Src/main.c **** /* USER CODE BEGIN PD */
  37:Core/Src/main.c **** /* USER CODE END PD */
  38:Core/Src/main.c **** 
  39:Core/Src/main.c **** /* Private macro -------------------------------------------------------------*/
  40:Core/Src/main.c **** /* USER CODE BEGIN PM */
  41:Core/Src/main.c **** 
  42:Core/Src/main.c **** /* USER CODE END PM */
  43:Core/Src/main.c **** 
  44:Core/Src/main.c **** /* Private variables ---------------------------------------------------------*/
  45:Core/Src/main.c **** 
  46:Core/Src/main.c **** /* USER CODE BEGIN PV */
  47:Core/Src/main.c **** CAN_TxHeaderTypeDef Txheader;
  48:Core/Src/main.c **** CAN_RxHeaderTypeDef Rxheader;
  49:Core/Src/main.c **** uint32_t Txmailbox;
  50:Core/Src/main.c **** uint8_t Rxmsg[8];
  51:Core/Src/main.c **** uint8_t Txmsg[8];
  52:Core/Src/main.c **** uint8_t msg[8];
  53:Core/Src/main.c **** uint8_t tstmsg[4]={0x1,0x2,0x3,0x4};
  54:Core/Src/main.c **** CAN_FilterTypeDef filter;
  55:Core/Src/main.c **** /* USER CODE END PV */
  56:Core/Src/main.c **** 
  57:Core/Src/main.c **** /* Private function prototypes -----------------------------------------------*/
  58:Core/Src/main.c **** void SystemClock_Config(void);
  59:Core/Src/main.c **** /* USER CODE BEGIN PFP */
  60:Core/Src/main.c **** void conf_filter(void);
  61:Core/Src/main.c **** void TogglePump(uint16_t pin,uint16_t state);
  62:Core/Src/main.c **** void ToggleValve(uint16_t pin,uint16_t state);
  63:Core/Src/main.c **** void HAL_CAN_RxFifo1MsgPendingCallback(CAN_HandleTypeDef *hcan);
  64:Core/Src/main.c **** void HAL_CAN_RxFifo0MsgPendingCallback(CAN_HandleTypeDef *hcan);
  65:Core/Src/main.c **** /* USER CODE END PFP */
  66:Core/Src/main.c **** 
  67:Core/Src/main.c **** /* Private user code ---------------------------------------------------------*/
  68:Core/Src/main.c **** /* USER CODE BEGIN 0 */
  69:Core/Src/main.c **** 
  70:Core/Src/main.c **** /* USER CODE END 0 */
  71:Core/Src/main.c **** 
  72:Core/Src/main.c **** /**
  73:Core/Src/main.c ****   * @brief  The application entry point.
  74:Core/Src/main.c ****   * @retval int
  75:Core/Src/main.c ****   */
  76:Core/Src/main.c **** int main(void)
  77:Core/Src/main.c **** {
  78:Core/Src/main.c ****   /* USER CODE BEGIN 1 */
  79:Core/Src/main.c **** 
  80:Core/Src/main.c ****   /* USER CODE END 1 */
  81:Core/Src/main.c **** 
  82:Core/Src/main.c ****   /* MCU Configuration--------------------------------------------------------*/
  83:Core/Src/main.c **** 
  84:Core/Src/main.c ****   /* Reset of all peripherals, Initializes the Flash interface and the Systick. */
  85:Core/Src/main.c ****   HAL_Init();
  86:Core/Src/main.c **** 
  87:Core/Src/main.c ****   /* USER CODE BEGIN Init */
  88:Core/Src/main.c **** 
  89:Core/Src/main.c ****   /* USER CODE END Init */
ARM GAS  C:\Users\PIERRE~1\AppData\Local\Temp\ccQb1ikf.s 			page 3


  90:Core/Src/main.c **** 
  91:Core/Src/main.c ****   /* Configure the system clock */
  92:Core/Src/main.c ****   SystemClock_Config();
  93:Core/Src/main.c **** 
  94:Core/Src/main.c ****   /* USER CODE BEGIN SysInit */
  95:Core/Src/main.c **** 
  96:Core/Src/main.c ****   /* USER CODE END SysInit */
  97:Core/Src/main.c **** 
  98:Core/Src/main.c ****   /* Initialize all configured peripherals */
  99:Core/Src/main.c ****   MX_GPIO_Init();
 100:Core/Src/main.c ****   MX_CAN_Init();
 101:Core/Src/main.c ****   
 102:Core/Src/main.c ****   /* USER CODE BEGIN 2 */
 103:Core/Src/main.c ****   conf_filter();
 104:Core/Src/main.c ****   //HAL_CAN_AddTxMessage(&hcan,&Txheader,tstmsg,&Txmailbox);
 105:Core/Src/main.c ****   /* USER CODE END 2 */
 106:Core/Src/main.c **** 
 107:Core/Src/main.c ****   /* Infinite loop */
 108:Core/Src/main.c ****   /* USER CODE BEGIN WHILE */
 109:Core/Src/main.c **** 	while (1)
 110:Core/Src/main.c **** 	{
 111:Core/Src/main.c **** 	//Waiting for interruption on the Canbus
 112:Core/Src/main.c ****     /* USER CODE END WHILE */
 113:Core/Src/main.c **** 	//HAL_CAN_AddTxMessage(&hcan,&Txheader,tstmsg,&Txmailbox);
 114:Core/Src/main.c **** // 	HAL_CAN_GetRxMessage(&hcan, CAN_FILTER_FIFO1, &Rxheader,Rxmsg);
 115:Core/Src/main.c **** // 	uint8_t msg[8];
 116:Core/Src/main.c **** // 	msg[0]=Rxmsg[0];
 117:Core/Src/main.c **** // 	msg[1]=Rxmsg[1];
 118:Core/Src/main.c **** // 	msg[2]=Rxmsg[2];
 119:Core/Src/main.c **** // 	msg[3]=Rxmsg[3];
 120:Core/Src/main.c **** // 	msg[4]=Rxmsg[4];
 121:Core/Src/main.c **** // 	msg[5]=Rxmsg[5];
 122:Core/Src/main.c **** // 	msg[6]=Rxmsg[6];
 123:Core/Src/main.c **** // 	msg[7]=Rxmsg[7];
 124:Core/Src/main.c **** // 	if(msg[0]=='P'&&msg[1]=='b')
 125:Core/Src/main.c **** // 		TogglePump(msg[2],msg[3]);
 126:Core/Src/main.c **** // 	if(msg[0]=='V'&&msg[1]=='b')
 127:Core/Src/main.c **** // 		ToggleValve(msg[2], msg[3]);
 128:Core/Src/main.c **** // HAL_CAN_GetRxMessage(&hcan, CAN_FILTER_FIFO0, &Rxheader,Rxmsg);
 129:Core/Src/main.c **** // 	//uint8_t msg[8];
 130:Core/Src/main.c **** // 	msg[0]=Rxmsg[0];
 131:Core/Src/main.c **** // 	msg[1]=Rxmsg[1];
 132:Core/Src/main.c **** // 	msg[2]=Rxmsg[2];
 133:Core/Src/main.c **** // 	msg[3]=Rxmsg[3];
 134:Core/Src/main.c **** // 	msg[4]=Rxmsg[4];
 135:Core/Src/main.c **** // 	msg[5]=Rxmsg[5];
 136:Core/Src/main.c **** // 	msg[6]=Rxmsg[6];
 137:Core/Src/main.c **** // 	msg[7]=Rxmsg[7];
 138:Core/Src/main.c **** // 	if(msg[0]=='P'&&msg[1]=='b')
 139:Core/Src/main.c **** // 		TogglePump(msg[2],msg[3]);
 140:Core/Src/main.c **** // 	if(msg[0]=='V'&&msg[1]=='b')
 141:Core/Src/main.c **** // 		ToggleValve(msg[2], msg[3]);
 142:Core/Src/main.c **** 
 143:Core/Src/main.c **** ToggleValve('0','1');
 144:Core/Src/main.c **** HAL_Delay(1000);
 145:Core/Src/main.c **** ToggleValve('0','0');
 146:Core/Src/main.c **** HAL_CAN_AddTxMessage(&hcan,&Txheader, tstmsg, &Txmailbox);
ARM GAS  C:\Users\PIERRE~1\AppData\Local\Temp\ccQb1ikf.s 			page 4


 147:Core/Src/main.c ****     /* USER CODE BEGIN 3 */
 148:Core/Src/main.c **** 	}
 149:Core/Src/main.c ****   /* USER CODE END 3 */
 150:Core/Src/main.c **** }
 151:Core/Src/main.c **** 
 152:Core/Src/main.c **** /**
 153:Core/Src/main.c ****   * @brief System Clock Configuration
 154:Core/Src/main.c ****   * @retval None
 155:Core/Src/main.c ****   */
 156:Core/Src/main.c **** void SystemClock_Config(void)
 157:Core/Src/main.c **** {
  27              		.loc 1 157 1 view -0
  28              		.cfi_startproc
  29              		@ args = 0, pretend = 0, frame = 72
  30              		@ frame_needed = 0, uses_anonymous_args = 0
  31 0000 30B5     		push	{r4, r5, lr}
  32              	.LCFI0:
  33              		.cfi_def_cfa_offset 12
  34              		.cfi_offset 4, -12
  35              		.cfi_offset 5, -8
  36              		.cfi_offset 14, -4
  37 0002 93B0     		sub	sp, sp, #76
  38              	.LCFI1:
  39              		.cfi_def_cfa_offset 88
 158:Core/Src/main.c ****   RCC_OscInitTypeDef RCC_OscInitStruct = {0};
  40              		.loc 1 158 3 view .LVU1
  41              		.loc 1 158 22 is_stmt 0 view .LVU2
  42 0004 1C22     		movs	r2, #28
  43 0006 0021     		movs	r1, #0
  44 0008 07A8     		add	r0, sp, #28
  45 000a FFF7FEFF 		bl	memset
  46              	.LVL0:
 159:Core/Src/main.c ****   RCC_ClkInitTypeDef RCC_ClkInitStruct = {0};
  47              		.loc 1 159 3 is_stmt 1 view .LVU3
  48              		.loc 1 159 22 is_stmt 0 view .LVU4
  49 000e 1022     		movs	r2, #16
  50 0010 0021     		movs	r1, #0
  51 0012 01A8     		add	r0, sp, #4
  52 0014 FFF7FEFF 		bl	memset
  53              	.LVL1:
 160:Core/Src/main.c **** 
 161:Core/Src/main.c ****   /** Initializes the RCC Oscillators according to the specified parameters
 162:Core/Src/main.c ****   * in the RCC_OscInitTypeDef structure.
 163:Core/Src/main.c ****   */
 164:Core/Src/main.c ****   RCC_OscInitStruct.OscillatorType = RCC_OSCILLATORTYPE_HSE;
  54              		.loc 1 164 3 is_stmt 1 view .LVU5
  55              		.loc 1 164 36 is_stmt 0 view .LVU6
  56 0018 0123     		movs	r3, #1
  57 001a 0593     		str	r3, [sp, #20]
 165:Core/Src/main.c ****   RCC_OscInitStruct.HSEState = RCC_HSE_ON;
  58              		.loc 1 165 3 is_stmt 1 view .LVU7
  59              		.loc 1 165 30 is_stmt 0 view .LVU8
  60 001c 0693     		str	r3, [sp, #24]
 166:Core/Src/main.c ****   RCC_OscInitStruct.PLL.PLLState = RCC_PLL_ON;
  61              		.loc 1 166 3 is_stmt 1 view .LVU9
  62              		.loc 1 166 34 is_stmt 0 view .LVU10
  63 001e 0225     		movs	r5, #2
ARM GAS  C:\Users\PIERRE~1\AppData\Local\Temp\ccQb1ikf.s 			page 5


  64 0020 0E95     		str	r5, [sp, #56]
 167:Core/Src/main.c ****   RCC_OscInitStruct.PLL.PLLSource = RCC_PLLSOURCE_HSE;
  65              		.loc 1 167 3 is_stmt 1 view .LVU11
  66              		.loc 1 167 35 is_stmt 0 view .LVU12
  67 0022 8023     		movs	r3, #128
  68 0024 5B02     		lsls	r3, r3, #9
  69 0026 0F93     		str	r3, [sp, #60]
 168:Core/Src/main.c ****   RCC_OscInitStruct.PLL.PLLMUL = RCC_PLL_MUL6;
  70              		.loc 1 168 3 is_stmt 1 view .LVU13
  71              		.loc 1 168 32 is_stmt 0 view .LVU14
  72 0028 8023     		movs	r3, #128
  73 002a 5B03     		lsls	r3, r3, #13
  74 002c 1093     		str	r3, [sp, #64]
 169:Core/Src/main.c ****   RCC_OscInitStruct.PLL.PREDIV = RCC_PREDIV_DIV1;
  75              		.loc 1 169 3 is_stmt 1 view .LVU15
  76              		.loc 1 169 32 is_stmt 0 view .LVU16
  77 002e 0024     		movs	r4, #0
  78 0030 1194     		str	r4, [sp, #68]
 170:Core/Src/main.c ****   if (HAL_RCC_OscConfig(&RCC_OscInitStruct) != HAL_OK)
  79              		.loc 1 170 3 is_stmt 1 view .LVU17
  80              		.loc 1 170 7 is_stmt 0 view .LVU18
  81 0032 05A8     		add	r0, sp, #20
  82 0034 FFF7FEFF 		bl	HAL_RCC_OscConfig
  83              	.LVL2:
 171:Core/Src/main.c ****   {
 172:Core/Src/main.c ****     Error_Handler();
 173:Core/Src/main.c ****   }
 174:Core/Src/main.c ****   /** Initializes the CPU, AHB and APB buses clocks
 175:Core/Src/main.c ****   */
 176:Core/Src/main.c ****   RCC_ClkInitStruct.ClockType = RCC_CLOCKTYPE_HCLK|RCC_CLOCKTYPE_SYSCLK
  84              		.loc 1 176 3 is_stmt 1 view .LVU19
  85              		.loc 1 176 31 is_stmt 0 view .LVU20
  86 0038 0723     		movs	r3, #7
  87 003a 0193     		str	r3, [sp, #4]
 177:Core/Src/main.c ****                               |RCC_CLOCKTYPE_PCLK1;
 178:Core/Src/main.c ****   RCC_ClkInitStruct.SYSCLKSource = RCC_SYSCLKSOURCE_PLLCLK;
  88              		.loc 1 178 3 is_stmt 1 view .LVU21
  89              		.loc 1 178 34 is_stmt 0 view .LVU22
  90 003c 0295     		str	r5, [sp, #8]
 179:Core/Src/main.c ****   RCC_ClkInitStruct.AHBCLKDivider = RCC_SYSCLK_DIV1;
  91              		.loc 1 179 3 is_stmt 1 view .LVU23
  92              		.loc 1 179 35 is_stmt 0 view .LVU24
  93 003e 0394     		str	r4, [sp, #12]
 180:Core/Src/main.c ****   RCC_ClkInitStruct.APB1CLKDivider = RCC_HCLK_DIV1;
  94              		.loc 1 180 3 is_stmt 1 view .LVU25
  95              		.loc 1 180 36 is_stmt 0 view .LVU26
  96 0040 0494     		str	r4, [sp, #16]
 181:Core/Src/main.c **** 
 182:Core/Src/main.c ****   if (HAL_RCC_ClockConfig(&RCC_ClkInitStruct, FLASH_LATENCY_1) != HAL_OK)
  97              		.loc 1 182 3 is_stmt 1 view .LVU27
  98              		.loc 1 182 7 is_stmt 0 view .LVU28
  99 0042 0121     		movs	r1, #1
 100 0044 01A8     		add	r0, sp, #4
 101 0046 FFF7FEFF 		bl	HAL_RCC_ClockConfig
 102              	.LVL3:
 183:Core/Src/main.c ****   {
 184:Core/Src/main.c ****     Error_Handler();
ARM GAS  C:\Users\PIERRE~1\AppData\Local\Temp\ccQb1ikf.s 			page 6


 185:Core/Src/main.c ****   }
 186:Core/Src/main.c **** }
 103              		.loc 1 186 1 view .LVU29
 104 004a 13B0     		add	sp, sp, #76
 105              		@ sp needed
 106 004c 30BD     		pop	{r4, r5, pc}
 107              		.cfi_endproc
 108              	.LFE41:
 110              		.section	.text.TogglePump,"ax",%progbits
 111              		.align	1
 112              		.global	TogglePump
 113              		.syntax unified
 114              		.code	16
 115              		.thumb_func
 116              		.fpu softvfp
 118              	TogglePump:
 119              	.LVL4:
 120              	.LFB42:
 187:Core/Src/main.c **** 
 188:Core/Src/main.c **** /* USER CODE BEGIN 4 */
 189:Core/Src/main.c **** void TogglePump(uint16_t pin, uint16_t state){
 121              		.loc 1 189 46 is_stmt 1 view -0
 122              		.cfi_startproc
 123              		@ args = 0, pretend = 0, frame = 0
 124              		@ frame_needed = 0, uses_anonymous_args = 0
 125              		.loc 1 189 46 is_stmt 0 view .LVU31
 126 0000 10B5     		push	{r4, lr}
 127              	.LCFI2:
 128              		.cfi_def_cfa_offset 8
 129              		.cfi_offset 4, -8
 130              		.cfi_offset 14, -4
 190:Core/Src/main.c **** 
 191:Core/Src/main.c **** 	switch(state){
 131              		.loc 1 191 2 is_stmt 1 view .LVU32
 132 0002 3029     		cmp	r1, #48
 133 0004 11D0     		beq	.L12
 134 0006 3129     		cmp	r1, #49
 135 0008 00D1     		bne	.L3
 192:Core/Src/main.c **** 	case '0':
 193:Core/Src/main.c **** 		state = GPIO_PIN_RESET;
 194:Core/Src/main.c **** 		break;
 195:Core/Src/main.c **** 	case '1':
 196:Core/Src/main.c **** 		state = GPIO_PIN_SET;
 136              		.loc 1 196 9 is_stmt 0 view .LVU33
 137 000a 3039     		subs	r1, r1, #48
 138              	.LVL5:
 139              	.L3:
 197:Core/Src/main.c **** 		break;
 198:Core/Src/main.c **** 	}
 199:Core/Src/main.c **** 	Txmsg[0]='R';
 140              		.loc 1 199 2 is_stmt 1 view .LVU34
 141              		.loc 1 199 10 is_stmt 0 view .LVU35
 142 000c 304B     		ldr	r3, .L13
 143 000e 5222     		movs	r2, #82
 144 0010 1A70     		strb	r2, [r3]
 200:Core/Src/main.c **** 	Txmsg[1]='p';
 145              		.loc 1 200 2 is_stmt 1 view .LVU36
ARM GAS  C:\Users\PIERRE~1\AppData\Local\Temp\ccQb1ikf.s 			page 7


 146              		.loc 1 200 10 is_stmt 0 view .LVU37
 147 0012 1E32     		adds	r2, r2, #30
 148 0014 5A70     		strb	r2, [r3, #1]
 201:Core/Src/main.c **** 	Txmsg[2]='b';
 149              		.loc 1 201 2 is_stmt 1 view .LVU38
 150              		.loc 1 201 10 is_stmt 0 view .LVU39
 151 0016 0E3A     		subs	r2, r2, #14
 152 0018 9A70     		strb	r2, [r3, #2]
 202:Core/Src/main.c **** 	switch (pin)
 153              		.loc 1 202 2 is_stmt 1 view .LVU40
 154 001a 3038     		subs	r0, r0, #48
 155              	.LVL6:
 156              		.loc 1 202 2 is_stmt 0 view .LVU41
 157 001c 83B2     		uxth	r3, r0
 158 001e 052B     		cmp	r3, #5
 159 0020 0ED8     		bhi	.L2
 160 0022 9800     		lsls	r0, r3, #2
 161 0024 2B4B     		ldr	r3, .L13+4
 162 0026 1B58     		ldr	r3, [r3, r0]
 163 0028 9F46     		mov	pc, r3
 164              		.section	.rodata.TogglePump,"a",%progbits
 165              		.align	2
 166              	.L6:
 167 0000 2E000000 		.word	.L11
 168 0004 42000000 		.word	.L10
 169 0008 56000000 		.word	.L9
 170 000c 76000000 		.word	.L8
 171 0010 94000000 		.word	.L7
 172 0014 B2000000 		.word	.L5
 173              		.section	.text.TogglePump
 174              	.LVL7:
 175              	.L12:
 193:Core/Src/main.c **** 		break;
 176              		.loc 1 193 9 view .LVU42
 177 002a 0021     		movs	r1, #0
 178              	.LVL8:
 193:Core/Src/main.c **** 		break;
 179              		.loc 1 193 9 view .LVU43
 180 002c EEE7     		b	.L3
 181              	.LVL9:
 182              	.L11:
 203:Core/Src/main.c **** 	{
 204:Core/Src/main.c **** 	case '0':
 205:Core/Src/main.c **** 
 206:Core/Src/main.c **** 		HAL_GPIO_WritePin(P1_GPIO_Port, P1_Pin, state);
 183              		.loc 1 206 3 is_stmt 1 view .LVU44
 184 002e CAB2     		uxtb	r2, r1
 185 0030 9020     		movs	r0, #144
 186 0032 0821     		movs	r1, #8
 187              	.LVL10:
 188              		.loc 1 206 3 is_stmt 0 view .LVU45
 189 0034 C005     		lsls	r0, r0, #23
 190 0036 FFF7FEFF 		bl	HAL_GPIO_WritePin
 191              	.LVL11:
 207:Core/Src/main.c **** 		HAL_Delay(250);
 192              		.loc 1 207 3 is_stmt 1 view .LVU46
 193 003a FA20     		movs	r0, #250
ARM GAS  C:\Users\PIERRE~1\AppData\Local\Temp\ccQb1ikf.s 			page 8


 194 003c FFF7FEFF 		bl	HAL_Delay
 195              	.LVL12:
 208:Core/Src/main.c **** 		//HAL_CAN_AddTxMessage(&hcan,&Txheader, Txmsg, &Txmailbox);
 209:Core/Src/main.c **** 		break;
 196              		.loc 1 209 3 view .LVU47
 197              	.L2:
 210:Core/Src/main.c **** 	case '1':
 211:Core/Src/main.c **** 
 212:Core/Src/main.c **** 		HAL_GPIO_WritePin(P2_GPIO_Port, P2_Pin, state);
 213:Core/Src/main.c **** 		HAL_Delay(250);
 214:Core/Src/main.c **** 		//HAL_CAN_AddTxMessage(&hcan,&Txheader, Txmsg, &Txmailbox);
 215:Core/Src/main.c **** 		break;
 216:Core/Src/main.c **** 	case '2':
 217:Core/Src/main.c **** 
 218:Core/Src/main.c **** 		HAL_GPIO_WritePin(P3_GPIO_Port, P3_Pin, state);
 219:Core/Src/main.c **** 		HAL_Delay(250);
 220:Core/Src/main.c **** 		HAL_CAN_AddTxMessage(&hcan,&Txheader, Txmsg, &Txmailbox);
 221:Core/Src/main.c **** 		break;
 222:Core/Src/main.c **** 	case '3':
 223:Core/Src/main.c **** 
 224:Core/Src/main.c **** 		HAL_GPIO_WritePin(P4_GPIO_Port, P4_Pin, state);
 225:Core/Src/main.c **** 		HAL_Delay(250);
 226:Core/Src/main.c **** 		HAL_CAN_AddTxMessage(&hcan,&Txheader, Txmsg, &Txmailbox);
 227:Core/Src/main.c **** 		break;
 228:Core/Src/main.c **** 	case '4':
 229:Core/Src/main.c **** 
 230:Core/Src/main.c **** 		HAL_GPIO_WritePin(P5_GPIO_Port, P5_Pin, state);
 231:Core/Src/main.c **** 		HAL_Delay(250);
 232:Core/Src/main.c **** 		HAL_CAN_AddTxMessage(&hcan,&Txheader, Txmsg, &Txmailbox);
 233:Core/Src/main.c **** 		break;
 234:Core/Src/main.c **** 	case '5':
 235:Core/Src/main.c **** 
 236:Core/Src/main.c **** 		HAL_GPIO_WritePin(P6_GPIO_Port, P6_Pin, state);
 237:Core/Src/main.c **** 		HAL_Delay(250);
 238:Core/Src/main.c **** 		HAL_CAN_AddTxMessage(&hcan,&Txheader, Txmsg, &Txmailbox);
 239:Core/Src/main.c **** 		break;
 240:Core/Src/main.c **** 	}
 241:Core/Src/main.c **** 	
 242:Core/Src/main.c **** }
 198              		.loc 1 242 1 is_stmt 0 view .LVU48
 199              		@ sp needed
 200 0040 10BD     		pop	{r4, pc}
 201              	.LVL13:
 202              	.L10:
 212:Core/Src/main.c **** 		HAL_Delay(250);
 203              		.loc 1 212 3 is_stmt 1 view .LVU49
 204 0042 CAB2     		uxtb	r2, r1
 205 0044 9020     		movs	r0, #144
 206 0046 2021     		movs	r1, #32
 207              	.LVL14:
 212:Core/Src/main.c **** 		HAL_Delay(250);
 208              		.loc 1 212 3 is_stmt 0 view .LVU50
 209 0048 C005     		lsls	r0, r0, #23
 210 004a FFF7FEFF 		bl	HAL_GPIO_WritePin
 211              	.LVL15:
 213:Core/Src/main.c **** 		//HAL_CAN_AddTxMessage(&hcan,&Txheader, Txmsg, &Txmailbox);
 212              		.loc 1 213 3 is_stmt 1 view .LVU51
ARM GAS  C:\Users\PIERRE~1\AppData\Local\Temp\ccQb1ikf.s 			page 9


 213 004e FA20     		movs	r0, #250
 214 0050 FFF7FEFF 		bl	HAL_Delay
 215              	.LVL16:
 215:Core/Src/main.c **** 	case '2':
 216              		.loc 1 215 3 view .LVU52
 217 0054 F4E7     		b	.L2
 218              	.LVL17:
 219              	.L9:
 218:Core/Src/main.c **** 		HAL_Delay(250);
 220              		.loc 1 218 3 view .LVU53
 221 0056 CAB2     		uxtb	r2, r1
 222 0058 9020     		movs	r0, #144
 223 005a 8021     		movs	r1, #128
 224              	.LVL18:
 218:Core/Src/main.c **** 		HAL_Delay(250);
 225              		.loc 1 218 3 is_stmt 0 view .LVU54
 226 005c C005     		lsls	r0, r0, #23
 227 005e FFF7FEFF 		bl	HAL_GPIO_WritePin
 228              	.LVL19:
 219:Core/Src/main.c **** 		HAL_CAN_AddTxMessage(&hcan,&Txheader, Txmsg, &Txmailbox);
 229              		.loc 1 219 3 is_stmt 1 view .LVU55
 230 0062 FA20     		movs	r0, #250
 231 0064 FFF7FEFF 		bl	HAL_Delay
 232              	.LVL20:
 220:Core/Src/main.c **** 		break;
 233              		.loc 1 220 3 view .LVU56
 234 0068 1B4B     		ldr	r3, .L13+8
 235 006a 194A     		ldr	r2, .L13
 236 006c 1B49     		ldr	r1, .L13+12
 237 006e 1C48     		ldr	r0, .L13+16
 238 0070 FFF7FEFF 		bl	HAL_CAN_AddTxMessage
 239              	.LVL21:
 221:Core/Src/main.c **** 	case '3':
 240              		.loc 1 221 3 view .LVU57
 241 0074 E4E7     		b	.L2
 242              	.LVL22:
 243              	.L8:
 224:Core/Src/main.c **** 		HAL_Delay(250);
 244              		.loc 1 224 3 view .LVU58
 245 0076 CAB2     		uxtb	r2, r1
 246 0078 8021     		movs	r1, #128
 247              	.LVL23:
 224:Core/Src/main.c **** 		HAL_Delay(250);
 248              		.loc 1 224 3 is_stmt 0 view .LVU59
 249 007a 1A48     		ldr	r0, .L13+20
 250 007c FFF7FEFF 		bl	HAL_GPIO_WritePin
 251              	.LVL24:
 225:Core/Src/main.c **** 		HAL_CAN_AddTxMessage(&hcan,&Txheader, Txmsg, &Txmailbox);
 252              		.loc 1 225 3 is_stmt 1 view .LVU60
 253 0080 FA20     		movs	r0, #250
 254 0082 FFF7FEFF 		bl	HAL_Delay
 255              	.LVL25:
 226:Core/Src/main.c **** 		break;
 256              		.loc 1 226 3 view .LVU61
 257 0086 144B     		ldr	r3, .L13+8
 258 0088 114A     		ldr	r2, .L13
 259 008a 1449     		ldr	r1, .L13+12
ARM GAS  C:\Users\PIERRE~1\AppData\Local\Temp\ccQb1ikf.s 			page 10


 260 008c 1448     		ldr	r0, .L13+16
 261 008e FFF7FEFF 		bl	HAL_CAN_AddTxMessage
 262              	.LVL26:
 227:Core/Src/main.c **** 	case '4':
 263              		.loc 1 227 3 view .LVU62
 264 0092 D5E7     		b	.L2
 265              	.LVL27:
 266              	.L7:
 230:Core/Src/main.c **** 		HAL_Delay(250);
 267              		.loc 1 230 3 view .LVU63
 268 0094 CAB2     		uxtb	r2, r1
 269 0096 2021     		movs	r1, #32
 270              	.LVL28:
 230:Core/Src/main.c **** 		HAL_Delay(250);
 271              		.loc 1 230 3 is_stmt 0 view .LVU64
 272 0098 1248     		ldr	r0, .L13+20
 273 009a FFF7FEFF 		bl	HAL_GPIO_WritePin
 274              	.LVL29:
 231:Core/Src/main.c **** 		HAL_CAN_AddTxMessage(&hcan,&Txheader, Txmsg, &Txmailbox);
 275              		.loc 1 231 3 is_stmt 1 view .LVU65
 276 009e FA20     		movs	r0, #250
 277 00a0 FFF7FEFF 		bl	HAL_Delay
 278              	.LVL30:
 232:Core/Src/main.c **** 		break;
 279              		.loc 1 232 3 view .LVU66
 280 00a4 0C4B     		ldr	r3, .L13+8
 281 00a6 0A4A     		ldr	r2, .L13
 282 00a8 0C49     		ldr	r1, .L13+12
 283 00aa 0D48     		ldr	r0, .L13+16
 284 00ac FFF7FEFF 		bl	HAL_CAN_AddTxMessage
 285              	.LVL31:
 233:Core/Src/main.c **** 	case '5':
 286              		.loc 1 233 3 view .LVU67
 287 00b0 C6E7     		b	.L2
 288              	.LVL32:
 289              	.L5:
 236:Core/Src/main.c **** 		HAL_Delay(250);
 290              		.loc 1 236 3 view .LVU68
 291 00b2 CAB2     		uxtb	r2, r1
 292 00b4 0821     		movs	r1, #8
 293              	.LVL33:
 236:Core/Src/main.c **** 		HAL_Delay(250);
 294              		.loc 1 236 3 is_stmt 0 view .LVU69
 295 00b6 0B48     		ldr	r0, .L13+20
 296 00b8 FFF7FEFF 		bl	HAL_GPIO_WritePin
 297              	.LVL34:
 237:Core/Src/main.c **** 		HAL_CAN_AddTxMessage(&hcan,&Txheader, Txmsg, &Txmailbox);
 298              		.loc 1 237 3 is_stmt 1 view .LVU70
 299 00bc FA20     		movs	r0, #250
 300 00be FFF7FEFF 		bl	HAL_Delay
 301              	.LVL35:
 238:Core/Src/main.c **** 		break;
 302              		.loc 1 238 3 view .LVU71
 303 00c2 054B     		ldr	r3, .L13+8
 304 00c4 024A     		ldr	r2, .L13
 305 00c6 0549     		ldr	r1, .L13+12
 306 00c8 0548     		ldr	r0, .L13+16
ARM GAS  C:\Users\PIERRE~1\AppData\Local\Temp\ccQb1ikf.s 			page 11


 307 00ca FFF7FEFF 		bl	HAL_CAN_AddTxMessage
 308              	.LVL36:
 239:Core/Src/main.c **** 	}
 309              		.loc 1 239 3 view .LVU72
 310              		.loc 1 242 1 is_stmt 0 view .LVU73
 311 00ce B7E7     		b	.L2
 312              	.L14:
 313              		.align	2
 314              	.L13:
 315 00d0 00000000 		.word	Txmsg
 316 00d4 00000000 		.word	.L6
 317 00d8 00000000 		.word	Txmailbox
 318 00dc 00000000 		.word	Txheader
 319 00e0 00000000 		.word	hcan
 320 00e4 00040048 		.word	1207960576
 321              		.cfi_endproc
 322              	.LFE42:
 324              		.section	.text.ToggleValve,"ax",%progbits
 325              		.align	1
 326              		.global	ToggleValve
 327              		.syntax unified
 328              		.code	16
 329              		.thumb_func
 330              		.fpu softvfp
 332              	ToggleValve:
 333              	.LVL37:
 334              	.LFB43:
 243:Core/Src/main.c **** 
 244:Core/Src/main.c **** void ToggleValve(uint16_t pin, uint16_t state){
 335              		.loc 1 244 47 is_stmt 1 view -0
 336              		.cfi_startproc
 337              		@ args = 0, pretend = 0, frame = 0
 338              		@ frame_needed = 0, uses_anonymous_args = 0
 339              		.loc 1 244 47 is_stmt 0 view .LVU75
 340 0000 10B5     		push	{r4, lr}
 341              	.LCFI3:
 342              		.cfi_def_cfa_offset 8
 343              		.cfi_offset 4, -8
 344              		.cfi_offset 14, -4
 245:Core/Src/main.c **** 
 246:Core/Src/main.c **** 	switch(state){
 345              		.loc 1 246 2 is_stmt 1 view .LVU76
 346 0002 3029     		cmp	r1, #48
 347 0004 0AD0     		beq	.L25
 348 0006 3129     		cmp	r1, #49
 349 0008 00D1     		bne	.L16
 247:Core/Src/main.c **** 	case '0':
 248:Core/Src/main.c **** 		state = GPIO_PIN_RESET;
 249:Core/Src/main.c **** 		break;
 250:Core/Src/main.c **** 	case '1':
 251:Core/Src/main.c **** 		state = GPIO_PIN_SET;
 350              		.loc 1 251 9 is_stmt 0 view .LVU77
 351 000a 3039     		subs	r1, r1, #48
 352              	.LVL38:
 353              	.L16:
 252:Core/Src/main.c **** 		break;
 253:Core/Src/main.c **** 	}
ARM GAS  C:\Users\PIERRE~1\AppData\Local\Temp\ccQb1ikf.s 			page 12


 254:Core/Src/main.c **** 
 255:Core/Src/main.c **** 	switch (pin)
 354              		.loc 1 255 2 is_stmt 1 view .LVU78
 355 000c 3038     		subs	r0, r0, #48
 356              	.LVL39:
 357              		.loc 1 255 2 is_stmt 0 view .LVU79
 358 000e 83B2     		uxth	r3, r0
 359 0010 052B     		cmp	r3, #5
 360 0012 14D8     		bhi	.L15
 361 0014 9800     		lsls	r0, r3, #2
 362 0016 314B     		ldr	r3, .L26
 363 0018 1B58     		ldr	r3, [r3, r0]
 364 001a 9F46     		mov	pc, r3
 365              		.section	.rodata.ToggleValve,"a",%progbits
 366              		.align	2
 367              	.L19:
 368 0000 20000000 		.word	.L24
 369 0004 40000000 		.word	.L23
 370 0008 60000000 		.word	.L22
 371 000c 7E000000 		.word	.L21
 372 0010 9C000000 		.word	.L20
 373 0014 BA000000 		.word	.L18
 374              		.section	.text.ToggleValve
 375              	.LVL40:
 376              	.L25:
 248:Core/Src/main.c **** 		break;
 377              		.loc 1 248 9 view .LVU80
 378 001c 0021     		movs	r1, #0
 379              	.LVL41:
 248:Core/Src/main.c **** 		break;
 380              		.loc 1 248 9 view .LVU81
 381 001e F5E7     		b	.L16
 382              	.LVL42:
 383              	.L24:
 256:Core/Src/main.c **** 	{
 257:Core/Src/main.c **** 	case '0':
 258:Core/Src/main.c **** 		HAL_GPIO_WritePin(V1_GPIO_Port, V1_Pin, state);
 384              		.loc 1 258 3 is_stmt 1 view .LVU82
 385 0020 CAB2     		uxtb	r2, r1
 386 0022 9020     		movs	r0, #144
 387 0024 1021     		movs	r1, #16
 388              	.LVL43:
 389              		.loc 1 258 3 is_stmt 0 view .LVU83
 390 0026 C005     		lsls	r0, r0, #23
 391 0028 FFF7FEFF 		bl	HAL_GPIO_WritePin
 392              	.LVL44:
 259:Core/Src/main.c **** 		HAL_Delay(250);
 393              		.loc 1 259 3 is_stmt 1 view .LVU84
 394 002c FA20     		movs	r0, #250
 395 002e FFF7FEFF 		bl	HAL_Delay
 396              	.LVL45:
 260:Core/Src/main.c **** 		HAL_CAN_AddTxMessage(&hcan,&Txheader, Txmsg, &Txmailbox);
 397              		.loc 1 260 3 view .LVU85
 398 0032 2B4B     		ldr	r3, .L26+4
 399 0034 2B4A     		ldr	r2, .L26+8
 400 0036 2C49     		ldr	r1, .L26+12
 401 0038 2C48     		ldr	r0, .L26+16
ARM GAS  C:\Users\PIERRE~1\AppData\Local\Temp\ccQb1ikf.s 			page 13


 402 003a FFF7FEFF 		bl	HAL_CAN_AddTxMessage
 403              	.LVL46:
 261:Core/Src/main.c **** 		break;
 404              		.loc 1 261 3 view .LVU86
 405              	.L15:
 262:Core/Src/main.c **** 	case '1':
 263:Core/Src/main.c **** 
 264:Core/Src/main.c **** 		HAL_GPIO_WritePin(V2_GPIO_Port, V2_Pin, state);
 265:Core/Src/main.c **** 		HAL_Delay(250);
 266:Core/Src/main.c **** 		HAL_CAN_AddTxMessage(&hcan,&Txheader, Txmsg, &Txmailbox);
 267:Core/Src/main.c **** 		break;
 268:Core/Src/main.c **** 	case '2':
 269:Core/Src/main.c **** 
 270:Core/Src/main.c **** 		HAL_GPIO_WritePin(V3_GPIO_Port, V3_Pin, state);
 271:Core/Src/main.c **** 		HAL_Delay(250);
 272:Core/Src/main.c **** 		HAL_CAN_AddTxMessage(&hcan,&Txheader, Txmsg, &Txmailbox);
 273:Core/Src/main.c **** 		break;
 274:Core/Src/main.c **** 	case '3':
 275:Core/Src/main.c **** 
 276:Core/Src/main.c **** 		HAL_GPIO_WritePin(V4_GPIO_Port, V4_Pin, state);
 277:Core/Src/main.c **** 		HAL_Delay(250);
 278:Core/Src/main.c **** 		HAL_CAN_AddTxMessage(&hcan,&Txheader, Txmsg, &Txmailbox);
 279:Core/Src/main.c **** 		break;
 280:Core/Src/main.c **** 	case '4':
 281:Core/Src/main.c **** 
 282:Core/Src/main.c **** 		HAL_GPIO_WritePin(V5_GPIO_Port, V5_Pin, state);
 283:Core/Src/main.c **** 		HAL_Delay(250);
 284:Core/Src/main.c **** 		HAL_CAN_AddTxMessage(&hcan,&Txheader, Txmsg, &Txmailbox);
 285:Core/Src/main.c **** 		break;
 286:Core/Src/main.c **** 	case '5':
 287:Core/Src/main.c **** 
 288:Core/Src/main.c **** 		HAL_GPIO_WritePin(V6_GPIO_Port, V6_Pin, state);
 289:Core/Src/main.c **** 		HAL_Delay(250);
 290:Core/Src/main.c **** 		HAL_CAN_AddTxMessage(&hcan,&Txheader, Txmsg, &Txmailbox);
 291:Core/Src/main.c **** 		break;
 292:Core/Src/main.c **** 
 293:Core/Src/main.c **** 	}
 294:Core/Src/main.c **** 	
 295:Core/Src/main.c **** }
 406              		.loc 1 295 1 is_stmt 0 view .LVU87
 407              		@ sp needed
 408 003e 10BD     		pop	{r4, pc}
 409              	.LVL47:
 410              	.L23:
 264:Core/Src/main.c **** 		HAL_Delay(250);
 411              		.loc 1 264 3 is_stmt 1 view .LVU88
 412 0040 CAB2     		uxtb	r2, r1
 413 0042 9020     		movs	r0, #144
 414 0044 4021     		movs	r1, #64
 415              	.LVL48:
 264:Core/Src/main.c **** 		HAL_Delay(250);
 416              		.loc 1 264 3 is_stmt 0 view .LVU89
 417 0046 C005     		lsls	r0, r0, #23
 418 0048 FFF7FEFF 		bl	HAL_GPIO_WritePin
 419              	.LVL49:
 265:Core/Src/main.c **** 		HAL_CAN_AddTxMessage(&hcan,&Txheader, Txmsg, &Txmailbox);
 420              		.loc 1 265 3 is_stmt 1 view .LVU90
ARM GAS  C:\Users\PIERRE~1\AppData\Local\Temp\ccQb1ikf.s 			page 14


 421 004c FA20     		movs	r0, #250
 422 004e FFF7FEFF 		bl	HAL_Delay
 423              	.LVL50:
 266:Core/Src/main.c **** 		break;
 424              		.loc 1 266 3 view .LVU91
 425 0052 234B     		ldr	r3, .L26+4
 426 0054 234A     		ldr	r2, .L26+8
 427 0056 2449     		ldr	r1, .L26+12
 428 0058 2448     		ldr	r0, .L26+16
 429 005a FFF7FEFF 		bl	HAL_CAN_AddTxMessage
 430              	.LVL51:
 267:Core/Src/main.c **** 	case '2':
 431              		.loc 1 267 3 view .LVU92
 432 005e EEE7     		b	.L15
 433              	.LVL52:
 434              	.L22:
 270:Core/Src/main.c **** 		HAL_Delay(250);
 435              		.loc 1 270 3 view .LVU93
 436 0060 CAB2     		uxtb	r2, r1
 437 0062 0121     		movs	r1, #1
 438              	.LVL53:
 270:Core/Src/main.c **** 		HAL_Delay(250);
 439              		.loc 1 270 3 is_stmt 0 view .LVU94
 440 0064 2248     		ldr	r0, .L26+20
 441 0066 FFF7FEFF 		bl	HAL_GPIO_WritePin
 442              	.LVL54:
 271:Core/Src/main.c **** 		HAL_CAN_AddTxMessage(&hcan,&Txheader, Txmsg, &Txmailbox);
 443              		.loc 1 271 3 is_stmt 1 view .LVU95
 444 006a FA20     		movs	r0, #250
 445 006c FFF7FEFF 		bl	HAL_Delay
 446              	.LVL55:
 272:Core/Src/main.c **** 		break;
 447              		.loc 1 272 3 view .LVU96
 448 0070 1B4B     		ldr	r3, .L26+4
 449 0072 1C4A     		ldr	r2, .L26+8
 450 0074 1C49     		ldr	r1, .L26+12
 451 0076 1D48     		ldr	r0, .L26+16
 452 0078 FFF7FEFF 		bl	HAL_CAN_AddTxMessage
 453              	.LVL56:
 273:Core/Src/main.c **** 	case '3':
 454              		.loc 1 273 3 view .LVU97
 455 007c DFE7     		b	.L15
 456              	.LVL57:
 457              	.L21:
 276:Core/Src/main.c **** 		HAL_Delay(250);
 458              		.loc 1 276 3 view .LVU98
 459 007e CAB2     		uxtb	r2, r1
 460 0080 4021     		movs	r1, #64
 461              	.LVL58:
 276:Core/Src/main.c **** 		HAL_Delay(250);
 462              		.loc 1 276 3 is_stmt 0 view .LVU99
 463 0082 1B48     		ldr	r0, .L26+20
 464 0084 FFF7FEFF 		bl	HAL_GPIO_WritePin
 465              	.LVL59:
 277:Core/Src/main.c **** 		HAL_CAN_AddTxMessage(&hcan,&Txheader, Txmsg, &Txmailbox);
 466              		.loc 1 277 3 is_stmt 1 view .LVU100
 467 0088 FA20     		movs	r0, #250
ARM GAS  C:\Users\PIERRE~1\AppData\Local\Temp\ccQb1ikf.s 			page 15


 468 008a FFF7FEFF 		bl	HAL_Delay
 469              	.LVL60:
 278:Core/Src/main.c **** 		break;
 470              		.loc 1 278 3 view .LVU101
 471 008e 144B     		ldr	r3, .L26+4
 472 0090 144A     		ldr	r2, .L26+8
 473 0092 1549     		ldr	r1, .L26+12
 474 0094 1548     		ldr	r0, .L26+16
 475 0096 FFF7FEFF 		bl	HAL_CAN_AddTxMessage
 476              	.LVL61:
 279:Core/Src/main.c **** 	case '4':
 477              		.loc 1 279 3 view .LVU102
 478 009a D0E7     		b	.L15
 479              	.LVL62:
 480              	.L20:
 282:Core/Src/main.c **** 		HAL_Delay(250);
 481              		.loc 1 282 3 view .LVU103
 482 009c CAB2     		uxtb	r2, r1
 483 009e 1021     		movs	r1, #16
 484              	.LVL63:
 282:Core/Src/main.c **** 		HAL_Delay(250);
 485              		.loc 1 282 3 is_stmt 0 view .LVU104
 486 00a0 1348     		ldr	r0, .L26+20
 487 00a2 FFF7FEFF 		bl	HAL_GPIO_WritePin
 488              	.LVL64:
 283:Core/Src/main.c **** 		HAL_CAN_AddTxMessage(&hcan,&Txheader, Txmsg, &Txmailbox);
 489              		.loc 1 283 3 is_stmt 1 view .LVU105
 490 00a6 FA20     		movs	r0, #250
 491 00a8 FFF7FEFF 		bl	HAL_Delay
 492              	.LVL65:
 284:Core/Src/main.c **** 		break;
 493              		.loc 1 284 3 view .LVU106
 494 00ac 0C4B     		ldr	r3, .L26+4
 495 00ae 0D4A     		ldr	r2, .L26+8
 496 00b0 0D49     		ldr	r1, .L26+12
 497 00b2 0E48     		ldr	r0, .L26+16
 498 00b4 FFF7FEFF 		bl	HAL_CAN_AddTxMessage
 499              	.LVL66:
 285:Core/Src/main.c **** 	case '5':
 500              		.loc 1 285 3 view .LVU107
 501 00b8 C1E7     		b	.L15
 502              	.LVL67:
 503              	.L18:
 288:Core/Src/main.c **** 		HAL_Delay(250);
 504              		.loc 1 288 3 view .LVU108
 505 00ba CAB2     		uxtb	r2, r1
 506 00bc 8021     		movs	r1, #128
 507              	.LVL68:
 288:Core/Src/main.c **** 		HAL_Delay(250);
 508              		.loc 1 288 3 is_stmt 0 view .LVU109
 509 00be 9020     		movs	r0, #144
 510 00c0 0902     		lsls	r1, r1, #8
 511 00c2 C005     		lsls	r0, r0, #23
 512 00c4 FFF7FEFF 		bl	HAL_GPIO_WritePin
 513              	.LVL69:
 289:Core/Src/main.c **** 		HAL_CAN_AddTxMessage(&hcan,&Txheader, Txmsg, &Txmailbox);
 514              		.loc 1 289 3 is_stmt 1 view .LVU110
ARM GAS  C:\Users\PIERRE~1\AppData\Local\Temp\ccQb1ikf.s 			page 16


 515 00c8 FA20     		movs	r0, #250
 516 00ca FFF7FEFF 		bl	HAL_Delay
 517              	.LVL70:
 290:Core/Src/main.c **** 		break;
 518              		.loc 1 290 3 view .LVU111
 519 00ce 044B     		ldr	r3, .L26+4
 520 00d0 044A     		ldr	r2, .L26+8
 521 00d2 0549     		ldr	r1, .L26+12
 522 00d4 0548     		ldr	r0, .L26+16
 523 00d6 FFF7FEFF 		bl	HAL_CAN_AddTxMessage
 524              	.LVL71:
 291:Core/Src/main.c **** 
 525              		.loc 1 291 3 view .LVU112
 526              		.loc 1 295 1 is_stmt 0 view .LVU113
 527 00da B0E7     		b	.L15
 528              	.L27:
 529              		.align	2
 530              	.L26:
 531 00dc 00000000 		.word	.L19
 532 00e0 00000000 		.word	Txmailbox
 533 00e4 00000000 		.word	Txmsg
 534 00e8 00000000 		.word	Txheader
 535 00ec 00000000 		.word	hcan
 536 00f0 00040048 		.word	1207960576
 537              		.cfi_endproc
 538              	.LFE43:
 540              		.section	.text.HAL_CAN_RxFifo1MsgPendingCallback,"ax",%progbits
 541              		.align	1
 542              		.global	HAL_CAN_RxFifo1MsgPendingCallback
 543              		.syntax unified
 544              		.code	16
 545              		.thumb_func
 546              		.fpu softvfp
 548              	HAL_CAN_RxFifo1MsgPendingCallback:
 549              	.LVL72:
 550              	.LFB44:
 296:Core/Src/main.c **** void HAL_CAN_RxFifo1MsgPendingCallback(CAN_HandleTypeDef *hcan){
 551              		.loc 1 296 64 is_stmt 1 view -0
 552              		.cfi_startproc
 553              		@ args = 0, pretend = 0, frame = 0
 554              		@ frame_needed = 0, uses_anonymous_args = 0
 555              		.loc 1 296 64 is_stmt 0 view .LVU115
 556 0000 F8B5     		push	{r3, r4, r5, r6, r7, lr}
 557              	.LCFI4:
 558              		.cfi_def_cfa_offset 24
 559              		.cfi_offset 3, -24
 560              		.cfi_offset 4, -20
 561              		.cfi_offset 5, -16
 562              		.cfi_offset 6, -12
 563              		.cfi_offset 7, -8
 564              		.cfi_offset 14, -4
 297:Core/Src/main.c **** 	HAL_CAN_GetRxMessage(hcan, CAN_FILTER_FIFO1, &Rxheader,Rxmsg);
 565              		.loc 1 297 2 is_stmt 1 view .LVU116
 566 0002 104C     		ldr	r4, .L33
 567 0004 2300     		movs	r3, r4
 568 0006 104A     		ldr	r2, .L33+4
 569 0008 0121     		movs	r1, #1
ARM GAS  C:\Users\PIERRE~1\AppData\Local\Temp\ccQb1ikf.s 			page 17


 570 000a FFF7FEFF 		bl	HAL_CAN_GetRxMessage
 571              	.LVL73:
 298:Core/Src/main.c **** 	uint8_t msg[8];
 572              		.loc 1 298 2 view .LVU117
 299:Core/Src/main.c **** 	msg[0]=Rxmsg[0];
 573              		.loc 1 299 2 view .LVU118
 574              		.loc 1 299 14 is_stmt 0 view .LVU119
 575 000e 2578     		ldrb	r5, [r4]
 300:Core/Src/main.c **** 	msg[1]=Rxmsg[1];
 576              		.loc 1 300 2 is_stmt 1 view .LVU120
 577              		.loc 1 300 14 is_stmt 0 view .LVU121
 578 0010 6678     		ldrb	r6, [r4, #1]
 301:Core/Src/main.c **** 	msg[2]=Rxmsg[2];
 579              		.loc 1 301 2 is_stmt 1 view .LVU122
 580              		.loc 1 301 14 is_stmt 0 view .LVU123
 581 0012 A778     		ldrb	r7, [r4, #2]
 302:Core/Src/main.c **** 	msg[3]=Rxmsg[3];
 582              		.loc 1 302 2 is_stmt 1 view .LVU124
 583              		.loc 1 302 14 is_stmt 0 view .LVU125
 584 0014 E478     		ldrb	r4, [r4, #3]
 303:Core/Src/main.c **** 	msg[4]=Rxmsg[4];
 585              		.loc 1 303 2 is_stmt 1 view .LVU126
 304:Core/Src/main.c **** 	msg[5]=Rxmsg[5];
 586              		.loc 1 304 2 view .LVU127
 305:Core/Src/main.c **** 	msg[6]=Rxmsg[6];
 587              		.loc 1 305 2 view .LVU128
 306:Core/Src/main.c **** 	msg[7]=Rxmsg[7];
 588              		.loc 1 306 2 view .LVU129
 307:Core/Src/main.c **** 	TogglePump('0','1');
 589              		.loc 1 307 2 view .LVU130
 590 0016 3121     		movs	r1, #49
 591 0018 3020     		movs	r0, #48
 592 001a FFF7FEFF 		bl	TogglePump
 593              	.LVL74:
 308:Core/Src/main.c **** 	if(msg[0]=='P'&&msg[1]=='b')
 594              		.loc 1 308 2 view .LVU131
 595              		.loc 1 308 4 is_stmt 0 view .LVU132
 596 001e 502D     		cmp	r5, #80
 597 0020 02D0     		beq	.L31
 598              	.L29:
 309:Core/Src/main.c **** 		TogglePump(msg[2],msg[3]);
 310:Core/Src/main.c **** 	if(msg[0]=='V'&&msg[1]=='b')
 599              		.loc 1 310 2 is_stmt 1 view .LVU133
 600              		.loc 1 310 4 is_stmt 0 view .LVU134
 601 0022 562D     		cmp	r5, #86
 602 0024 07D0     		beq	.L32
 603              	.L28:
 311:Core/Src/main.c **** 		ToggleValve(msg[2], msg[3]);
 312:Core/Src/main.c **** 
 313:Core/Src/main.c **** }
 604              		.loc 1 313 1 view .LVU135
 605              		@ sp needed
 606 0026 F8BD     		pop	{r3, r4, r5, r6, r7, pc}
 607              	.L31:
 308:Core/Src/main.c **** 		TogglePump(msg[2],msg[3]);
 608              		.loc 1 308 16 discriminator 1 view .LVU136
 609 0028 622E     		cmp	r6, #98
ARM GAS  C:\Users\PIERRE~1\AppData\Local\Temp\ccQb1ikf.s 			page 18


 610 002a FAD1     		bne	.L29
 309:Core/Src/main.c **** 		TogglePump(msg[2],msg[3]);
 611              		.loc 1 309 3 is_stmt 1 view .LVU137
 612 002c A1B2     		uxth	r1, r4
 613 002e B8B2     		uxth	r0, r7
 614 0030 FFF7FEFF 		bl	TogglePump
 615              	.LVL75:
 616 0034 F5E7     		b	.L29
 617              	.L32:
 310:Core/Src/main.c **** 		ToggleValve(msg[2], msg[3]);
 618              		.loc 1 310 16 is_stmt 0 discriminator 1 view .LVU138
 619 0036 622E     		cmp	r6, #98
 620 0038 F5D1     		bne	.L28
 311:Core/Src/main.c **** 		ToggleValve(msg[2], msg[3]);
 621              		.loc 1 311 3 is_stmt 1 view .LVU139
 622 003a A1B2     		uxth	r1, r4
 623 003c B8B2     		uxth	r0, r7
 624 003e FFF7FEFF 		bl	ToggleValve
 625              	.LVL76:
 626              		.loc 1 313 1 is_stmt 0 view .LVU140
 627 0042 F0E7     		b	.L28
 628              	.L34:
 629              		.align	2
 630              	.L33:
 631 0044 00000000 		.word	Rxmsg
 632 0048 00000000 		.word	Rxheader
 633              		.cfi_endproc
 634              	.LFE44:
 636              		.section	.text.HAL_CAN_RxFifo0MsgPendingCallback,"ax",%progbits
 637              		.align	1
 638              		.global	HAL_CAN_RxFifo0MsgPendingCallback
 639              		.syntax unified
 640              		.code	16
 641              		.thumb_func
 642              		.fpu softvfp
 644              	HAL_CAN_RxFifo0MsgPendingCallback:
 645              	.LVL77:
 646              	.LFB45:
 314:Core/Src/main.c **** void HAL_CAN_RxFifo0MsgPendingCallback(CAN_HandleTypeDef *hcan){
 647              		.loc 1 314 64 is_stmt 1 view -0
 648              		.cfi_startproc
 649              		@ args = 0, pretend = 0, frame = 0
 650              		@ frame_needed = 0, uses_anonymous_args = 0
 651              		.loc 1 314 64 is_stmt 0 view .LVU142
 652 0000 F8B5     		push	{r3, r4, r5, r6, r7, lr}
 653              	.LCFI5:
 654              		.cfi_def_cfa_offset 24
 655              		.cfi_offset 3, -24
 656              		.cfi_offset 4, -20
 657              		.cfi_offset 5, -16
 658              		.cfi_offset 6, -12
 659              		.cfi_offset 7, -8
 660              		.cfi_offset 14, -4
 315:Core/Src/main.c **** 	HAL_CAN_GetRxMessage(hcan, CAN_FILTER_FIFO0, &Rxheader,Rxmsg);
 661              		.loc 1 315 2 is_stmt 1 view .LVU143
 662 0002 104C     		ldr	r4, .L40
 663 0004 2300     		movs	r3, r4
ARM GAS  C:\Users\PIERRE~1\AppData\Local\Temp\ccQb1ikf.s 			page 19


 664 0006 104A     		ldr	r2, .L40+4
 665 0008 0021     		movs	r1, #0
 666 000a FFF7FEFF 		bl	HAL_CAN_GetRxMessage
 667              	.LVL78:
 316:Core/Src/main.c **** 	uint8_t msg[8];
 668              		.loc 1 316 2 view .LVU144
 317:Core/Src/main.c **** 	msg[0]=Rxmsg[0];
 669              		.loc 1 317 2 view .LVU145
 670              		.loc 1 317 14 is_stmt 0 view .LVU146
 671 000e 2578     		ldrb	r5, [r4]
 318:Core/Src/main.c **** 	msg[1]=Rxmsg[1];
 672              		.loc 1 318 2 is_stmt 1 view .LVU147
 673              		.loc 1 318 14 is_stmt 0 view .LVU148
 674 0010 6678     		ldrb	r6, [r4, #1]
 319:Core/Src/main.c **** 	msg[2]=Rxmsg[2];
 675              		.loc 1 319 2 is_stmt 1 view .LVU149
 676              		.loc 1 319 14 is_stmt 0 view .LVU150
 677 0012 A778     		ldrb	r7, [r4, #2]
 320:Core/Src/main.c **** 	msg[3]=Rxmsg[3];
 678              		.loc 1 320 2 is_stmt 1 view .LVU151
 679              		.loc 1 320 14 is_stmt 0 view .LVU152
 680 0014 E478     		ldrb	r4, [r4, #3]
 321:Core/Src/main.c **** 	msg[4]=Rxmsg[4];
 681              		.loc 1 321 2 is_stmt 1 view .LVU153
 322:Core/Src/main.c **** 	msg[5]=Rxmsg[5];
 682              		.loc 1 322 2 view .LVU154
 323:Core/Src/main.c **** 	msg[6]=Rxmsg[6];
 683              		.loc 1 323 2 view .LVU155
 324:Core/Src/main.c **** 	msg[7]=Rxmsg[7];
 684              		.loc 1 324 2 view .LVU156
 325:Core/Src/main.c **** 	TogglePump('0','1');
 685              		.loc 1 325 2 view .LVU157
 686 0016 3121     		movs	r1, #49
 687 0018 3020     		movs	r0, #48
 688 001a FFF7FEFF 		bl	TogglePump
 689              	.LVL79:
 326:Core/Src/main.c **** 	if(msg[0]=='P'&&msg[1]=='b')
 690              		.loc 1 326 2 view .LVU158
 691              		.loc 1 326 4 is_stmt 0 view .LVU159
 692 001e 502D     		cmp	r5, #80
 693 0020 02D0     		beq	.L38
 694              	.L36:
 327:Core/Src/main.c **** 		TogglePump(msg[2],msg[3]);
 328:Core/Src/main.c **** 	if(msg[0]=='V'&&msg[1]=='b')
 695              		.loc 1 328 2 is_stmt 1 view .LVU160
 696              		.loc 1 328 4 is_stmt 0 view .LVU161
 697 0022 562D     		cmp	r5, #86
 698 0024 07D0     		beq	.L39
 699              	.L35:
 329:Core/Src/main.c **** 		ToggleValve(msg[2], msg[3]);
 330:Core/Src/main.c **** 
 331:Core/Src/main.c **** }
 700              		.loc 1 331 1 view .LVU162
 701              		@ sp needed
 702 0026 F8BD     		pop	{r3, r4, r5, r6, r7, pc}
 703              	.L38:
 326:Core/Src/main.c **** 		TogglePump(msg[2],msg[3]);
ARM GAS  C:\Users\PIERRE~1\AppData\Local\Temp\ccQb1ikf.s 			page 20


 704              		.loc 1 326 16 discriminator 1 view .LVU163
 705 0028 622E     		cmp	r6, #98
 706 002a FAD1     		bne	.L36
 327:Core/Src/main.c **** 		TogglePump(msg[2],msg[3]);
 707              		.loc 1 327 3 is_stmt 1 view .LVU164
 708 002c A1B2     		uxth	r1, r4
 709 002e B8B2     		uxth	r0, r7
 710 0030 FFF7FEFF 		bl	TogglePump
 711              	.LVL80:
 712 0034 F5E7     		b	.L36
 713              	.L39:
 328:Core/Src/main.c **** 		ToggleValve(msg[2], msg[3]);
 714              		.loc 1 328 16 is_stmt 0 discriminator 1 view .LVU165
 715 0036 622E     		cmp	r6, #98
 716 0038 F5D1     		bne	.L35
 329:Core/Src/main.c **** 		ToggleValve(msg[2], msg[3]);
 717              		.loc 1 329 3 is_stmt 1 view .LVU166
 718 003a A1B2     		uxth	r1, r4
 719 003c B8B2     		uxth	r0, r7
 720 003e FFF7FEFF 		bl	ToggleValve
 721              	.LVL81:
 722              		.loc 1 331 1 is_stmt 0 view .LVU167
 723 0042 F0E7     		b	.L35
 724              	.L41:
 725              		.align	2
 726              	.L40:
 727 0044 00000000 		.word	Rxmsg
 728 0048 00000000 		.word	Rxheader
 729              		.cfi_endproc
 730              	.LFE45:
 732              		.section	.text.conf_filter,"ax",%progbits
 733              		.align	1
 734              		.global	conf_filter
 735              		.syntax unified
 736              		.code	16
 737              		.thumb_func
 738              		.fpu softvfp
 740              	conf_filter:
 741              	.LFB46:
 332:Core/Src/main.c **** 
 333:Core/Src/main.c **** void conf_filter(void){
 742              		.loc 1 333 23 is_stmt 1 view -0
 743              		.cfi_startproc
 744              		@ args = 0, pretend = 0, frame = 0
 745              		@ frame_needed = 0, uses_anonymous_args = 0
 746 0000 10B5     		push	{r4, lr}
 747              	.LCFI6:
 748              		.cfi_def_cfa_offset 8
 749              		.cfi_offset 4, -8
 750              		.cfi_offset 14, -4
 334:Core/Src/main.c **** 	//HAL_CAN_MspInit(&hcan);
 335:Core/Src/main.c **** 
 336:Core/Src/main.c **** 	filter.FilterIdHigh=0x400;
 751              		.loc 1 336 2 view .LVU169
 752              		.loc 1 336 21 is_stmt 0 view .LVU170
 753 0002 0D49     		ldr	r1, .L43
 754 0004 8023     		movs	r3, #128
ARM GAS  C:\Users\PIERRE~1\AppData\Local\Temp\ccQb1ikf.s 			page 21


 755 0006 DB00     		lsls	r3, r3, #3
 756 0008 0B60     		str	r3, [r1]
 337:Core/Src/main.c **** 	filter.FilterFIFOAssignment=CAN_FILTER_FIFO0||CAN_FILTER_FIFO1;
 757              		.loc 1 337 2 is_stmt 1 view .LVU171
 758              		.loc 1 337 29 is_stmt 0 view .LVU172
 759 000a 0123     		movs	r3, #1
 760 000c 0B61     		str	r3, [r1, #16]
 338:Core/Src/main.c **** 	filter.FilterMode=CAN_FILTERMODE_IDMASK;
 761              		.loc 1 338 2 is_stmt 1 view .LVU173
 762              		.loc 1 338 19 is_stmt 0 view .LVU174
 763 000e 0022     		movs	r2, #0
 764 0010 8A61     		str	r2, [r1, #24]
 339:Core/Src/main.c **** 	filter.FilterScale=CAN_FILTERSCALE_32BIT;
 765              		.loc 1 339 2 is_stmt 1 view .LVU175
 766              		.loc 1 339 20 is_stmt 0 view .LVU176
 767 0012 CB61     		str	r3, [r1, #28]
 340:Core/Src/main.c **** 	filter.FilterBank=0;
 768              		.loc 1 340 2 is_stmt 1 view .LVU177
 769              		.loc 1 340 19 is_stmt 0 view .LVU178
 770 0014 4A61     		str	r2, [r1, #20]
 341:Core/Src/main.c **** 	filter.SlaveStartFilterBank=14;
 771              		.loc 1 341 2 is_stmt 1 view .LVU179
 772              		.loc 1 341 29 is_stmt 0 view .LVU180
 773 0016 0E20     		movs	r0, #14
 774 0018 4862     		str	r0, [r1, #36]
 342:Core/Src/main.c **** 	filter.FilterActivation=CAN_FILTER_ENABLE;
 775              		.loc 1 342 2 is_stmt 1 view .LVU181
 776              		.loc 1 342 25 is_stmt 0 view .LVU182
 777 001a 0B62     		str	r3, [r1, #32]
 343:Core/Src/main.c **** 
 344:Core/Src/main.c **** 	Txheader.StdId = 0x500;      // Dtermine l'adresse du priphrique au quel la trame est destin
 778              		.loc 1 344 2 is_stmt 1 view .LVU183
 779              		.loc 1 344 17 is_stmt 0 view .LVU184
 780 001c 074B     		ldr	r3, .L43+4
 781 001e A020     		movs	r0, #160
 782 0020 C000     		lsls	r0, r0, #3
 783 0022 1860     		str	r0, [r3]
 345:Core/Src/main.c **** 	// Si plusieurs priphriques sur le bus comprennent cette adresse dans leur filtre, ils recevro
 346:Core/Src/main.c **** 	Txheader.ExtId = 0x0;       // Adresse tendue, non utilise dans note cas
 784              		.loc 1 346 2 is_stmt 1 view .LVU185
 785              		.loc 1 346 17 is_stmt 0 view .LVU186
 786 0024 5A60     		str	r2, [r3, #4]
 347:Core/Src/main.c **** 	Txheader.RTR = CAN_RTR_DATA; // Prcise que la trame contient des donnes
 787              		.loc 1 347 2 is_stmt 1 view .LVU187
 788              		.loc 1 347 15 is_stmt 0 view .LVU188
 789 0026 DA60     		str	r2, [r3, #12]
 348:Core/Src/main.c **** 	Txheader.IDE = CAN_ID_STD;   // Prcise que la trame est de type Standard
 790              		.loc 1 348 2 is_stmt 1 view .LVU189
 791              		.loc 1 348 15 is_stmt 0 view .LVU190
 792 0028 9A60     		str	r2, [r3, #8]
 349:Core/Src/main.c **** 	Txheader.DLC =3;            // Prcise le nombre d'octets de donnes que la trame transporte ( D
 793              		.loc 1 349 2 is_stmt 1 view .LVU191
 794              		.loc 1 349 15 is_stmt 0 view .LVU192
 795 002a 0320     		movs	r0, #3
 796 002c 1861     		str	r0, [r3, #16]
 350:Core/Src/main.c **** 	Txheader.TransmitGlobalTime = DISABLE;
 797              		.loc 1 350 2 is_stmt 1 view .LVU193
ARM GAS  C:\Users\PIERRE~1\AppData\Local\Temp\ccQb1ikf.s 			page 22


 798              		.loc 1 350 30 is_stmt 0 view .LVU194
 799 002e 1A75     		strb	r2, [r3, #20]
 351:Core/Src/main.c **** 	HAL_CAN_ConfigFilter(&hcan,&filter);
 800              		.loc 1 351 2 is_stmt 1 view .LVU195
 801 0030 0348     		ldr	r0, .L43+8
 802 0032 FFF7FEFF 		bl	HAL_CAN_ConfigFilter
 803              	.LVL82:
 352:Core/Src/main.c **** }
 804              		.loc 1 352 1 is_stmt 0 view .LVU196
 805              		@ sp needed
 806 0036 10BD     		pop	{r4, pc}
 807              	.L44:
 808              		.align	2
 809              	.L43:
 810 0038 00000000 		.word	filter
 811 003c 00000000 		.word	Txheader
 812 0040 00000000 		.word	hcan
 813              		.cfi_endproc
 814              	.LFE46:
 816              		.section	.text.main,"ax",%progbits
 817              		.align	1
 818              		.global	main
 819              		.syntax unified
 820              		.code	16
 821              		.thumb_func
 822              		.fpu softvfp
 824              	main:
 825              	.LFB40:
  77:Core/Src/main.c ****   /* USER CODE BEGIN 1 */
 826              		.loc 1 77 1 is_stmt 1 view -0
 827              		.cfi_startproc
 828              		@ Volatile: function does not return.
 829              		@ args = 0, pretend = 0, frame = 0
 830              		@ frame_needed = 0, uses_anonymous_args = 0
 831 0000 10B5     		push	{r4, lr}
 832              	.LCFI7:
 833              		.cfi_def_cfa_offset 8
 834              		.cfi_offset 4, -8
 835              		.cfi_offset 14, -4
  85:Core/Src/main.c **** 
 836              		.loc 1 85 3 view .LVU198
 837 0002 FFF7FEFF 		bl	HAL_Init
 838              	.LVL83:
  92:Core/Src/main.c **** 
 839              		.loc 1 92 3 view .LVU199
 840 0006 FFF7FEFF 		bl	SystemClock_Config
 841              	.LVL84:
  99:Core/Src/main.c ****   MX_CAN_Init();
 842              		.loc 1 99 3 view .LVU200
 843 000a FFF7FEFF 		bl	MX_GPIO_Init
 844              	.LVL85:
 100:Core/Src/main.c ****   
 845              		.loc 1 100 3 view .LVU201
 846 000e FFF7FEFF 		bl	MX_CAN_Init
 847              	.LVL86:
 103:Core/Src/main.c ****   //HAL_CAN_AddTxMessage(&hcan,&Txheader,tstmsg,&Txmailbox);
 848              		.loc 1 103 3 view .LVU202
ARM GAS  C:\Users\PIERRE~1\AppData\Local\Temp\ccQb1ikf.s 			page 23


 849 0012 FFF7FEFF 		bl	conf_filter
 850              	.LVL87:
 851              	.L46:
 109:Core/Src/main.c **** 	{
 852              		.loc 1 109 2 discriminator 1 view .LVU203
 143:Core/Src/main.c **** HAL_Delay(1000);
 853              		.loc 1 143 1 discriminator 1 view .LVU204
 854 0016 3121     		movs	r1, #49
 855 0018 3020     		movs	r0, #48
 856 001a FFF7FEFF 		bl	ToggleValve
 857              	.LVL88:
 144:Core/Src/main.c **** ToggleValve('0','0');
 858              		.loc 1 144 1 discriminator 1 view .LVU205
 859 001e FA20     		movs	r0, #250
 860 0020 8000     		lsls	r0, r0, #2
 861 0022 FFF7FEFF 		bl	HAL_Delay
 862              	.LVL89:
 145:Core/Src/main.c **** HAL_CAN_AddTxMessage(&hcan,&Txheader, tstmsg, &Txmailbox);
 863              		.loc 1 145 1 discriminator 1 view .LVU206
 864 0026 3021     		movs	r1, #48
 865 0028 3020     		movs	r0, #48
 866 002a FFF7FEFF 		bl	ToggleValve
 867              	.LVL90:
 146:Core/Src/main.c ****     /* USER CODE BEGIN 3 */
 868              		.loc 1 146 1 discriminator 1 view .LVU207
 869 002e 034B     		ldr	r3, .L47
 870 0030 034A     		ldr	r2, .L47+4
 871 0032 0449     		ldr	r1, .L47+8
 872 0034 0448     		ldr	r0, .L47+12
 873 0036 FFF7FEFF 		bl	HAL_CAN_AddTxMessage
 874              	.LVL91:
 109:Core/Src/main.c **** 	{
 875              		.loc 1 109 8 discriminator 1 view .LVU208
 876 003a ECE7     		b	.L46
 877              	.L48:
 878              		.align	2
 879              	.L47:
 880 003c 00000000 		.word	Txmailbox
 881 0040 00000000 		.word	.LANCHOR0
 882 0044 00000000 		.word	Txheader
 883 0048 00000000 		.word	hcan
 884              		.cfi_endproc
 885              	.LFE40:
 887              		.section	.text.Error_Handler,"ax",%progbits
 888              		.align	1
 889              		.global	Error_Handler
 890              		.syntax unified
 891              		.code	16
 892              		.thumb_func
 893              		.fpu softvfp
 895              	Error_Handler:
 896              	.LFB47:
 353:Core/Src/main.c **** /* USER CODE END 4 */
 354:Core/Src/main.c **** 
 355:Core/Src/main.c **** /**
 356:Core/Src/main.c ****   * @brief  This function is executed in case of error occurrence.
 357:Core/Src/main.c ****   * @retval None
ARM GAS  C:\Users\PIERRE~1\AppData\Local\Temp\ccQb1ikf.s 			page 24


 358:Core/Src/main.c ****   */
 359:Core/Src/main.c **** void Error_Handler(void)
 360:Core/Src/main.c **** {
 897              		.loc 1 360 1 view -0
 898              		.cfi_startproc
 899              		@ args = 0, pretend = 0, frame = 0
 900              		@ frame_needed = 0, uses_anonymous_args = 0
 901              		@ link register save eliminated.
 361:Core/Src/main.c ****   /* USER CODE BEGIN Error_Handler_Debug */
 362:Core/Src/main.c **** 	/* User can add his own implementation to report the HAL error return state */
 363:Core/Src/main.c **** 
 364:Core/Src/main.c ****   /* USER CODE END Error_Handler_Debug */
 365:Core/Src/main.c **** }
 902              		.loc 1 365 1 view .LVU210
 903              		@ sp needed
 904 0000 7047     		bx	lr
 905              		.cfi_endproc
 906              	.LFE47:
 908              		.comm	filter,40,4
 909              		.global	tstmsg
 910              		.comm	msg,8,4
 911              		.comm	Txmsg,8,4
 912              		.comm	Rxmsg,8,4
 913              		.comm	Txmailbox,4,4
 914              		.comm	Rxheader,28,4
 915              		.comm	Txheader,24,4
 916              		.section	.data.tstmsg,"aw"
 917              		.align	2
 918              		.set	.LANCHOR0,. + 0
 921              	tstmsg:
 922 0000 01020304 		.ascii	"\001\002\003\004"
 923              		.text
 924              	.Letext0:
 925              		.file 2 "c:\\users\\pierre-anthony\\.vscode\\extensions\\buzzyelectronics.stm-helper-1.2.9\\armgcc
 926              		.file 3 "c:\\users\\pierre-anthony\\.vscode\\extensions\\buzzyelectronics.stm-helper-1.2.9\\armgcc
 927              		.file 4 "Drivers/CMSIS/Device/ST/STM32F0xx/Include/system_stm32f0xx.h"
 928              		.file 5 "Drivers/CMSIS/Device/ST/STM32F0xx/Include/stm32f042x6.h"
 929              		.file 6 "Drivers/CMSIS/Device/ST/STM32F0xx/Include/stm32f0xx.h"
 930              		.file 7 "Drivers/STM32F0xx_HAL_Driver/Inc/stm32f0xx_hal_def.h"
 931              		.file 8 "Drivers/STM32F0xx_HAL_Driver/Inc/stm32f0xx_hal_rcc.h"
 932              		.file 9 "Drivers/STM32F0xx_HAL_Driver/Inc/stm32f0xx_hal_gpio.h"
 933              		.file 10 "Drivers/STM32F0xx_HAL_Driver/Inc/stm32f0xx_hal_can.h"
 934              		.file 11 "Drivers/STM32F0xx_HAL_Driver/Inc/stm32f0xx_hal.h"
 935              		.file 12 "Core/Inc/can.h"
 936              		.file 13 "Core/Inc/gpio.h"
 937              		.file 14 "<built-in>"
ARM GAS  C:\Users\PIERRE~1\AppData\Local\Temp\ccQb1ikf.s 			page 25

