ARM GAS  C:\Users\PIERRE~1\AppData\Local\Temp\ccmm56fI.s 			page 1


   1              		.cpu cortex-m4
   2              		.eabi_attribute 27, 1
   3              		.eabi_attribute 28, 1
   4              		.eabi_attribute 20, 1
   5              		.eabi_attribute 21, 1
   6              		.eabi_attribute 23, 3
   7              		.eabi_attribute 24, 1
   8              		.eabi_attribute 25, 1
   9              		.eabi_attribute 26, 1
  10              		.eabi_attribute 30, 1
  11              		.eabi_attribute 34, 1
  12              		.eabi_attribute 18, 4
  13              		.file	"can.c"
  14              		.text
  15              	.Ltext0:
  16              		.cfi_sections	.debug_frame
  17              		.section	.text.MX_CAN_Init,"ax",%progbits
  18              		.align	1
  19              		.global	MX_CAN_Init
  20              		.arch armv7e-m
  21              		.syntax unified
  22              		.thumb
  23              		.thumb_func
  24              		.fpu fpv4-sp-d16
  26              	MX_CAN_Init:
  27              	.LFB123:
  28              		.file 1 "Core/Src/can.c"
   1:Core/Src/can.c **** /**
   2:Core/Src/can.c ****   ******************************************************************************
   3:Core/Src/can.c ****   * @file    can.c
   4:Core/Src/can.c ****   * @brief   This file provides code for the configuration
   5:Core/Src/can.c ****   *          of the CAN instances.
   6:Core/Src/can.c ****   ******************************************************************************
   7:Core/Src/can.c ****   * @attention
   8:Core/Src/can.c ****   *
   9:Core/Src/can.c ****   * <h2><center>&copy; Copyright (c) 2021 STMicroelectronics.
  10:Core/Src/can.c ****   * All rights reserved.</center></h2>
  11:Core/Src/can.c ****   *
  12:Core/Src/can.c ****   * This software component is licensed by ST under Ultimate Liberty license
  13:Core/Src/can.c ****   * SLA0044, the "License"; You may not use this file except in compliance with
  14:Core/Src/can.c ****   * the License. You may obtain a copy of the License at:
  15:Core/Src/can.c ****   *                             www.st.com/SLA0044
  16:Core/Src/can.c ****   *
  17:Core/Src/can.c ****   ******************************************************************************
  18:Core/Src/can.c ****   */
  19:Core/Src/can.c **** 
  20:Core/Src/can.c **** /* Includes ------------------------------------------------------------------*/
  21:Core/Src/can.c **** #include "can.h"
  22:Core/Src/can.c **** 
  23:Core/Src/can.c **** /* USER CODE BEGIN 0 */
  24:Core/Src/can.c **** 
  25:Core/Src/can.c **** /* USER CODE END 0 */
  26:Core/Src/can.c **** 
  27:Core/Src/can.c **** CAN_HandleTypeDef hcan;
  28:Core/Src/can.c **** 
  29:Core/Src/can.c **** /* CAN init function */
  30:Core/Src/can.c **** void MX_CAN_Init(void)
ARM GAS  C:\Users\PIERRE~1\AppData\Local\Temp\ccmm56fI.s 			page 2


  31:Core/Src/can.c **** {
  29              		.loc 1 31 1 view -0
  30              		.cfi_startproc
  31              		@ args = 0, pretend = 0, frame = 0
  32              		@ frame_needed = 0, uses_anonymous_args = 0
  33 0000 08B5     		push	{r3, lr}
  34              	.LCFI0:
  35              		.cfi_def_cfa_offset 8
  36              		.cfi_offset 3, -8
  37              		.cfi_offset 14, -4
  32:Core/Src/can.c **** 
  33:Core/Src/can.c ****   hcan.Instance = CAN;
  38              		.loc 1 33 3 view .LVU1
  39              		.loc 1 33 17 is_stmt 0 view .LVU2
  40 0002 0B48     		ldr	r0, .L5
  41 0004 0B4B     		ldr	r3, .L5+4
  42 0006 0360     		str	r3, [r0]
  34:Core/Src/can.c ****   hcan.Init.Prescaler = 16;
  43              		.loc 1 34 3 is_stmt 1 view .LVU3
  44              		.loc 1 34 23 is_stmt 0 view .LVU4
  45 0008 1023     		movs	r3, #16
  46 000a 4360     		str	r3, [r0, #4]
  35:Core/Src/can.c ****   hcan.Init.Mode = CAN_MODE_NORMAL;
  47              		.loc 1 35 3 is_stmt 1 view .LVU5
  48              		.loc 1 35 18 is_stmt 0 view .LVU6
  49 000c 0023     		movs	r3, #0
  50 000e 8360     		str	r3, [r0, #8]
  36:Core/Src/can.c ****   hcan.Init.SyncJumpWidth = CAN_SJW_1TQ;
  51              		.loc 1 36 3 is_stmt 1 view .LVU7
  52              		.loc 1 36 27 is_stmt 0 view .LVU8
  53 0010 C360     		str	r3, [r0, #12]
  37:Core/Src/can.c ****   hcan.Init.TimeSeg1 = CAN_BS1_1TQ;
  54              		.loc 1 37 3 is_stmt 1 view .LVU9
  55              		.loc 1 37 22 is_stmt 0 view .LVU10
  56 0012 0361     		str	r3, [r0, #16]
  38:Core/Src/can.c ****   hcan.Init.TimeSeg2 = CAN_BS2_1TQ;
  57              		.loc 1 38 3 is_stmt 1 view .LVU11
  58              		.loc 1 38 22 is_stmt 0 view .LVU12
  59 0014 4361     		str	r3, [r0, #20]
  39:Core/Src/can.c ****   hcan.Init.TimeTriggeredMode = DISABLE;
  60              		.loc 1 39 3 is_stmt 1 view .LVU13
  61              		.loc 1 39 31 is_stmt 0 view .LVU14
  62 0016 0376     		strb	r3, [r0, #24]
  40:Core/Src/can.c ****   hcan.Init.AutoBusOff = DISABLE;
  63              		.loc 1 40 3 is_stmt 1 view .LVU15
  64              		.loc 1 40 24 is_stmt 0 view .LVU16
  65 0018 4376     		strb	r3, [r0, #25]
  41:Core/Src/can.c ****   hcan.Init.AutoWakeUp = DISABLE;
  66              		.loc 1 41 3 is_stmt 1 view .LVU17
  67              		.loc 1 41 24 is_stmt 0 view .LVU18
  68 001a 8376     		strb	r3, [r0, #26]
  42:Core/Src/can.c ****   hcan.Init.AutoRetransmission = DISABLE;
  69              		.loc 1 42 3 is_stmt 1 view .LVU19
  70              		.loc 1 42 32 is_stmt 0 view .LVU20
  71 001c C376     		strb	r3, [r0, #27]
  43:Core/Src/can.c ****   hcan.Init.ReceiveFifoLocked = DISABLE;
  72              		.loc 1 43 3 is_stmt 1 view .LVU21
ARM GAS  C:\Users\PIERRE~1\AppData\Local\Temp\ccmm56fI.s 			page 3


  73              		.loc 1 43 31 is_stmt 0 view .LVU22
  74 001e 0377     		strb	r3, [r0, #28]
  44:Core/Src/can.c ****   hcan.Init.TransmitFifoPriority = DISABLE;
  75              		.loc 1 44 3 is_stmt 1 view .LVU23
  76              		.loc 1 44 34 is_stmt 0 view .LVU24
  77 0020 4377     		strb	r3, [r0, #29]
  45:Core/Src/can.c ****   if (HAL_CAN_Init(&hcan) != HAL_OK)
  78              		.loc 1 45 3 is_stmt 1 view .LVU25
  79              		.loc 1 45 7 is_stmt 0 view .LVU26
  80 0022 FFF7FEFF 		bl	HAL_CAN_Init
  81              	.LVL0:
  82              		.loc 1 45 6 view .LVU27
  83 0026 00B9     		cbnz	r0, .L4
  84              	.L1:
  46:Core/Src/can.c ****   {
  47:Core/Src/can.c ****     Error_Handler();
  48:Core/Src/can.c ****   }
  49:Core/Src/can.c **** 
  50:Core/Src/can.c **** }
  85              		.loc 1 50 1 view .LVU28
  86 0028 08BD     		pop	{r3, pc}
  87              	.L4:
  47:Core/Src/can.c ****   }
  88              		.loc 1 47 5 is_stmt 1 view .LVU29
  89 002a FFF7FEFF 		bl	Error_Handler
  90              	.LVL1:
  91              		.loc 1 50 1 is_stmt 0 view .LVU30
  92 002e FBE7     		b	.L1
  93              	.L6:
  94              		.align	2
  95              	.L5:
  96 0030 00000000 		.word	hcan
  97 0034 00640040 		.word	1073767424
  98              		.cfi_endproc
  99              	.LFE123:
 101              		.section	.text.HAL_CAN_MspInit,"ax",%progbits
 102              		.align	1
 103              		.global	HAL_CAN_MspInit
 104              		.syntax unified
 105              		.thumb
 106              		.thumb_func
 107              		.fpu fpv4-sp-d16
 109              	HAL_CAN_MspInit:
 110              	.LVL2:
 111              	.LFB124:
  51:Core/Src/can.c **** 
  52:Core/Src/can.c **** void HAL_CAN_MspInit(CAN_HandleTypeDef* canHandle)
  53:Core/Src/can.c **** {
 112              		.loc 1 53 1 is_stmt 1 view -0
 113              		.cfi_startproc
 114              		@ args = 0, pretend = 0, frame = 32
 115              		@ frame_needed = 0, uses_anonymous_args = 0
 116              		.loc 1 53 1 is_stmt 0 view .LVU32
 117 0000 00B5     		push	{lr}
 118              	.LCFI1:
 119              		.cfi_def_cfa_offset 4
 120              		.cfi_offset 14, -4
ARM GAS  C:\Users\PIERRE~1\AppData\Local\Temp\ccmm56fI.s 			page 4


 121 0002 89B0     		sub	sp, sp, #36
 122              	.LCFI2:
 123              		.cfi_def_cfa_offset 40
  54:Core/Src/can.c **** 
  55:Core/Src/can.c ****   GPIO_InitTypeDef GPIO_InitStruct = {0};
 124              		.loc 1 55 3 is_stmt 1 view .LVU33
 125              		.loc 1 55 20 is_stmt 0 view .LVU34
 126 0004 0023     		movs	r3, #0
 127 0006 0393     		str	r3, [sp, #12]
 128 0008 0493     		str	r3, [sp, #16]
 129 000a 0593     		str	r3, [sp, #20]
 130 000c 0693     		str	r3, [sp, #24]
 131 000e 0793     		str	r3, [sp, #28]
  56:Core/Src/can.c ****   if(canHandle->Instance==CAN)
 132              		.loc 1 56 3 is_stmt 1 view .LVU35
 133              		.loc 1 56 15 is_stmt 0 view .LVU36
 134 0010 0268     		ldr	r2, [r0]
 135              		.loc 1 56 5 view .LVU37
 136 0012 154B     		ldr	r3, .L11
 137 0014 9A42     		cmp	r2, r3
 138 0016 02D0     		beq	.L10
 139              	.LVL3:
 140              	.L7:
  57:Core/Src/can.c ****   {
  58:Core/Src/can.c ****   /* USER CODE BEGIN CAN_MspInit 0 */
  59:Core/Src/can.c **** 
  60:Core/Src/can.c ****   /* USER CODE END CAN_MspInit 0 */
  61:Core/Src/can.c ****     /* CAN clock enable */
  62:Core/Src/can.c ****     __HAL_RCC_CAN1_CLK_ENABLE();
  63:Core/Src/can.c **** 
  64:Core/Src/can.c ****     __HAL_RCC_GPIOB_CLK_ENABLE();
  65:Core/Src/can.c ****     /**CAN GPIO Configuration
  66:Core/Src/can.c ****     PB8     ------> CAN_RX
  67:Core/Src/can.c ****     PB9     ------> CAN_TX
  68:Core/Src/can.c ****     */
  69:Core/Src/can.c ****     GPIO_InitStruct.Pin = GPIO_PIN_8|GPIO_PIN_9;
  70:Core/Src/can.c ****     GPIO_InitStruct.Mode = GPIO_MODE_AF_PP;
  71:Core/Src/can.c ****     GPIO_InitStruct.Pull = GPIO_NOPULL;
  72:Core/Src/can.c ****     GPIO_InitStruct.Speed = GPIO_SPEED_FREQ_HIGH;
  73:Core/Src/can.c ****     GPIO_InitStruct.Alternate = GPIO_AF9_TIM1;
  74:Core/Src/can.c ****     HAL_GPIO_Init(GPIOB, &GPIO_InitStruct);
  75:Core/Src/can.c **** 
  76:Core/Src/can.c ****   /* USER CODE BEGIN CAN_MspInit 1 */
  77:Core/Src/can.c **** 
  78:Core/Src/can.c ****   /* USER CODE END CAN_MspInit 1 */
  79:Core/Src/can.c ****   }
  80:Core/Src/can.c **** }
 141              		.loc 1 80 1 view .LVU38
 142 0018 09B0     		add	sp, sp, #36
 143              	.LCFI3:
 144              		.cfi_remember_state
 145              		.cfi_def_cfa_offset 4
 146              		@ sp needed
 147 001a 5DF804FB 		ldr	pc, [sp], #4
 148              	.LVL4:
 149              	.L10:
 150              	.LCFI4:
ARM GAS  C:\Users\PIERRE~1\AppData\Local\Temp\ccmm56fI.s 			page 5


 151              		.cfi_restore_state
  62:Core/Src/can.c **** 
 152              		.loc 1 62 5 is_stmt 1 view .LVU39
 153              	.LBB2:
  62:Core/Src/can.c **** 
 154              		.loc 1 62 5 view .LVU40
  62:Core/Src/can.c **** 
 155              		.loc 1 62 5 view .LVU41
 156 001e 03F5D633 		add	r3, r3, #109568
 157 0022 DA69     		ldr	r2, [r3, #28]
 158 0024 42F00072 		orr	r2, r2, #33554432
 159 0028 DA61     		str	r2, [r3, #28]
  62:Core/Src/can.c **** 
 160              		.loc 1 62 5 view .LVU42
 161 002a DA69     		ldr	r2, [r3, #28]
 162 002c 02F00072 		and	r2, r2, #33554432
 163 0030 0192     		str	r2, [sp, #4]
  62:Core/Src/can.c **** 
 164              		.loc 1 62 5 view .LVU43
 165 0032 019A     		ldr	r2, [sp, #4]
 166              	.LBE2:
  62:Core/Src/can.c **** 
 167              		.loc 1 62 5 view .LVU44
  64:Core/Src/can.c ****     /**CAN GPIO Configuration
 168              		.loc 1 64 5 view .LVU45
 169              	.LBB3:
  64:Core/Src/can.c ****     /**CAN GPIO Configuration
 170              		.loc 1 64 5 view .LVU46
  64:Core/Src/can.c ****     /**CAN GPIO Configuration
 171              		.loc 1 64 5 view .LVU47
 172 0034 5A69     		ldr	r2, [r3, #20]
 173 0036 42F48022 		orr	r2, r2, #262144
 174 003a 5A61     		str	r2, [r3, #20]
  64:Core/Src/can.c ****     /**CAN GPIO Configuration
 175              		.loc 1 64 5 view .LVU48
 176 003c 5B69     		ldr	r3, [r3, #20]
 177 003e 03F48023 		and	r3, r3, #262144
 178 0042 0293     		str	r3, [sp, #8]
  64:Core/Src/can.c ****     /**CAN GPIO Configuration
 179              		.loc 1 64 5 view .LVU49
 180 0044 029B     		ldr	r3, [sp, #8]
 181              	.LBE3:
  64:Core/Src/can.c ****     /**CAN GPIO Configuration
 182              		.loc 1 64 5 view .LVU50
  69:Core/Src/can.c ****     GPIO_InitStruct.Mode = GPIO_MODE_AF_PP;
 183              		.loc 1 69 5 view .LVU51
  69:Core/Src/can.c ****     GPIO_InitStruct.Mode = GPIO_MODE_AF_PP;
 184              		.loc 1 69 25 is_stmt 0 view .LVU52
 185 0046 4FF44073 		mov	r3, #768
 186 004a 0393     		str	r3, [sp, #12]
  70:Core/Src/can.c ****     GPIO_InitStruct.Pull = GPIO_NOPULL;
 187              		.loc 1 70 5 is_stmt 1 view .LVU53
  70:Core/Src/can.c ****     GPIO_InitStruct.Pull = GPIO_NOPULL;
 188              		.loc 1 70 26 is_stmt 0 view .LVU54
 189 004c 0223     		movs	r3, #2
 190 004e 0493     		str	r3, [sp, #16]
  71:Core/Src/can.c ****     GPIO_InitStruct.Speed = GPIO_SPEED_FREQ_HIGH;
ARM GAS  C:\Users\PIERRE~1\AppData\Local\Temp\ccmm56fI.s 			page 6


 191              		.loc 1 71 5 is_stmt 1 view .LVU55
  71:Core/Src/can.c ****     GPIO_InitStruct.Speed = GPIO_SPEED_FREQ_HIGH;
 192              		.loc 1 71 26 is_stmt 0 view .LVU56
 193 0050 0023     		movs	r3, #0
 194 0052 0593     		str	r3, [sp, #20]
  72:Core/Src/can.c ****     GPIO_InitStruct.Alternate = GPIO_AF9_TIM1;
 195              		.loc 1 72 5 is_stmt 1 view .LVU57
  72:Core/Src/can.c ****     GPIO_InitStruct.Alternate = GPIO_AF9_TIM1;
 196              		.loc 1 72 27 is_stmt 0 view .LVU58
 197 0054 0323     		movs	r3, #3
 198 0056 0693     		str	r3, [sp, #24]
  73:Core/Src/can.c ****     HAL_GPIO_Init(GPIOB, &GPIO_InitStruct);
 199              		.loc 1 73 5 is_stmt 1 view .LVU59
  73:Core/Src/can.c ****     HAL_GPIO_Init(GPIOB, &GPIO_InitStruct);
 200              		.loc 1 73 31 is_stmt 0 view .LVU60
 201 0058 0923     		movs	r3, #9
 202 005a 0793     		str	r3, [sp, #28]
  74:Core/Src/can.c **** 
 203              		.loc 1 74 5 is_stmt 1 view .LVU61
 204 005c 03A9     		add	r1, sp, #12
 205 005e 0348     		ldr	r0, .L11+4
 206              	.LVL5:
  74:Core/Src/can.c **** 
 207              		.loc 1 74 5 is_stmt 0 view .LVU62
 208 0060 FFF7FEFF 		bl	HAL_GPIO_Init
 209              	.LVL6:
 210              		.loc 1 80 1 view .LVU63
 211 0064 D8E7     		b	.L7
 212              	.L12:
 213 0066 00BF     		.align	2
 214              	.L11:
 215 0068 00640040 		.word	1073767424
 216 006c 00040048 		.word	1207960576
 217              		.cfi_endproc
 218              	.LFE124:
 220              		.section	.text.HAL_CAN_MspDeInit,"ax",%progbits
 221              		.align	1
 222              		.global	HAL_CAN_MspDeInit
 223              		.syntax unified
 224              		.thumb
 225              		.thumb_func
 226              		.fpu fpv4-sp-d16
 228              	HAL_CAN_MspDeInit:
 229              	.LVL7:
 230              	.LFB125:
  81:Core/Src/can.c **** 
  82:Core/Src/can.c **** void HAL_CAN_MspDeInit(CAN_HandleTypeDef* canHandle)
  83:Core/Src/can.c **** {
 231              		.loc 1 83 1 is_stmt 1 view -0
 232              		.cfi_startproc
 233              		@ args = 0, pretend = 0, frame = 0
 234              		@ frame_needed = 0, uses_anonymous_args = 0
 235              		.loc 1 83 1 is_stmt 0 view .LVU65
 236 0000 08B5     		push	{r3, lr}
 237              	.LCFI5:
 238              		.cfi_def_cfa_offset 8
 239              		.cfi_offset 3, -8
ARM GAS  C:\Users\PIERRE~1\AppData\Local\Temp\ccmm56fI.s 			page 7


 240              		.cfi_offset 14, -4
  84:Core/Src/can.c **** 
  85:Core/Src/can.c ****   if(canHandle->Instance==CAN)
 241              		.loc 1 85 3 is_stmt 1 view .LVU66
 242              		.loc 1 85 15 is_stmt 0 view .LVU67
 243 0002 0268     		ldr	r2, [r0]
 244              		.loc 1 85 5 view .LVU68
 245 0004 074B     		ldr	r3, .L17
 246 0006 9A42     		cmp	r2, r3
 247 0008 00D0     		beq	.L16
 248              	.LVL8:
 249              	.L13:
  86:Core/Src/can.c ****   {
  87:Core/Src/can.c ****   /* USER CODE BEGIN CAN_MspDeInit 0 */
  88:Core/Src/can.c **** 
  89:Core/Src/can.c ****   /* USER CODE END CAN_MspDeInit 0 */
  90:Core/Src/can.c ****     /* Peripheral clock disable */
  91:Core/Src/can.c ****     __HAL_RCC_CAN1_CLK_DISABLE();
  92:Core/Src/can.c **** 
  93:Core/Src/can.c ****     /**CAN GPIO Configuration
  94:Core/Src/can.c ****     PB8     ------> CAN_RX
  95:Core/Src/can.c ****     PB9     ------> CAN_TX
  96:Core/Src/can.c ****     */
  97:Core/Src/can.c ****     HAL_GPIO_DeInit(GPIOB, GPIO_PIN_8|GPIO_PIN_9);
  98:Core/Src/can.c **** 
  99:Core/Src/can.c ****   /* USER CODE BEGIN CAN_MspDeInit 1 */
 100:Core/Src/can.c **** 
 101:Core/Src/can.c ****   /* USER CODE END CAN_MspDeInit 1 */
 102:Core/Src/can.c ****   }
 103:Core/Src/can.c **** }
 250              		.loc 1 103 1 view .LVU69
 251 000a 08BD     		pop	{r3, pc}
 252              	.LVL9:
 253              	.L16:
  91:Core/Src/can.c **** 
 254              		.loc 1 91 5 is_stmt 1 view .LVU70
 255 000c 064A     		ldr	r2, .L17+4
 256 000e D369     		ldr	r3, [r2, #28]
 257 0010 23F00073 		bic	r3, r3, #33554432
 258 0014 D361     		str	r3, [r2, #28]
  97:Core/Src/can.c **** 
 259              		.loc 1 97 5 view .LVU71
 260 0016 4FF44071 		mov	r1, #768
 261 001a 0448     		ldr	r0, .L17+8
 262              	.LVL10:
  97:Core/Src/can.c **** 
 263              		.loc 1 97 5 is_stmt 0 view .LVU72
 264 001c FFF7FEFF 		bl	HAL_GPIO_DeInit
 265              	.LVL11:
 266              		.loc 1 103 1 view .LVU73
 267 0020 F3E7     		b	.L13
 268              	.L18:
 269 0022 00BF     		.align	2
 270              	.L17:
 271 0024 00640040 		.word	1073767424
 272 0028 00100240 		.word	1073876992
 273 002c 00040048 		.word	1207960576
ARM GAS  C:\Users\PIERRE~1\AppData\Local\Temp\ccmm56fI.s 			page 8


 274              		.cfi_endproc
 275              	.LFE125:
 277              		.comm	hcan,40,4
 278              		.text
 279              	.Letext0:
 280              		.file 2 "c:\\users\\pierre-anthony\\.vscode\\extensions\\buzzyelectronics.stm-helper-1.2.9\\armgcc
 281              		.file 3 "c:\\users\\pierre-anthony\\.vscode\\extensions\\buzzyelectronics.stm-helper-1.2.9\\armgcc
 282              		.file 4 "Drivers/CMSIS/Include/core_cm4.h"
 283              		.file 5 "Drivers/CMSIS/Device/ST/STM32F3xx/Include/system_stm32f3xx.h"
 284              		.file 6 "Drivers/CMSIS/Device/ST/STM32F3xx/Include/stm32f302x8.h"
 285              		.file 7 "Drivers/CMSIS/Device/ST/STM32F3xx/Include/stm32f3xx.h"
 286              		.file 8 "Drivers/STM32F3xx_HAL_Driver/Inc/stm32f3xx_hal_def.h"
 287              		.file 9 "Drivers/STM32F3xx_HAL_Driver/Inc/stm32f3xx_hal_gpio.h"
 288              		.file 10 "Drivers/STM32F3xx_HAL_Driver/Inc/stm32f3xx_hal_can.h"
 289              		.file 11 "Drivers/STM32F3xx_HAL_Driver/Inc/stm32f3xx_hal.h"
 290              		.file 12 "Core/Inc/can.h"
 291              		.file 13 "Core/Inc/main.h"
ARM GAS  C:\Users\PIERRE~1\AppData\Local\Temp\ccmm56fI.s 			page 9

