ARM GAS  C:\Users\pierr\AppData\Local\Temp\ccR7Apju.s 			page 1


   1              		.cpu cortex-m4
   2              		.eabi_attribute 27, 1
   3              		.eabi_attribute 28, 1
   4              		.eabi_attribute 20, 1
   5              		.eabi_attribute 21, 1
   6              		.eabi_attribute 23, 3
   7              		.eabi_attribute 24, 1
   8              		.eabi_attribute 25, 1
   9              		.eabi_attribute 26, 1
  10              		.eabi_attribute 30, 1
  11              		.eabi_attribute 34, 1
  12              		.eabi_attribute 18, 4
  13              		.file	"main.c"
  14              		.text
  15              	.Ltext0:
  16              		.cfi_sections	.debug_frame
  17              		.section	.text._write,"ax",%progbits
  18              		.align	1
  19              		.global	_write
  20              		.arch armv7e-m
  21              		.syntax unified
  22              		.thumb
  23              		.thumb_func
  24              		.fpu fpv4-sp-d16
  26              	_write:
  27              	.LVL0:
  28              	.LFB126:
  29              		.file 1 "Core/Src/main.c"
   1:Core/Src/main.c **** /* USER CODE BEGIN Header */
   2:Core/Src/main.c **** /**
   3:Core/Src/main.c ****   ******************************************************************************
   4:Core/Src/main.c ****   * @file           : main.c
   5:Core/Src/main.c ****   * @brief          : Main program body
   6:Core/Src/main.c ****   ******************************************************************************
   7:Core/Src/main.c ****   * @attention
   8:Core/Src/main.c ****   *
   9:Core/Src/main.c ****   * <h2><center>&copy; Copyright (c) 2021 STMicroelectronics.
  10:Core/Src/main.c ****   * All rights reserved.</center></h2>
  11:Core/Src/main.c ****   *
  12:Core/Src/main.c ****   * This software component is licensed by ST under Ultimate Liberty license
  13:Core/Src/main.c ****   * SLA0044, the "License"; You may not use this file except in compliance with
  14:Core/Src/main.c ****   * the License. You may obtain a copy of the License at:
  15:Core/Src/main.c ****   *                             www.st.com/SLA0044
  16:Core/Src/main.c ****   *
  17:Core/Src/main.c ****   ******************************************************************************
  18:Core/Src/main.c ****   */
  19:Core/Src/main.c **** /* USER CODE END Header */
  20:Core/Src/main.c **** /* Includes ------------------------------------------------------------------*/
  21:Core/Src/main.c **** #include "main.h"
  22:Core/Src/main.c **** #include "dma.h"
  23:Core/Src/main.c **** #include "usart.h"
  24:Core/Src/main.c **** #include "usb_device.h"
  25:Core/Src/main.c **** #include "gpio.h"
  26:Core/Src/main.c **** 
  27:Core/Src/main.c **** /* Private includes ----------------------------------------------------------*/
  28:Core/Src/main.c **** /* USER CODE BEGIN Includes */
  29:Core/Src/main.c **** 
ARM GAS  C:\Users\pierr\AppData\Local\Temp\ccR7Apju.s 			page 2


  30:Core/Src/main.c **** /* USER CODE END Includes */
  31:Core/Src/main.c **** 
  32:Core/Src/main.c **** /* Private typedef -----------------------------------------------------------*/
  33:Core/Src/main.c **** /* USER CODE BEGIN PTD */
  34:Core/Src/main.c **** LD06 *lidar;
  35:Core/Src/main.c **** /* USER CODE END PTD */
  36:Core/Src/main.c **** 
  37:Core/Src/main.c **** /* Private define ------------------------------------------------------------*/
  38:Core/Src/main.c **** /* USER CODE BEGIN PD */
  39:Core/Src/main.c **** /* USER CODE END PD */
  40:Core/Src/main.c **** 
  41:Core/Src/main.c **** /* Private macro -------------------------------------------------------------*/
  42:Core/Src/main.c **** /* USER CODE BEGIN PM */
  43:Core/Src/main.c **** 
  44:Core/Src/main.c **** /* USER CODE END PM */
  45:Core/Src/main.c **** 
  46:Core/Src/main.c **** /* Private variables ---------------------------------------------------------*/
  47:Core/Src/main.c **** 
  48:Core/Src/main.c **** /* USER CODE BEGIN PV */
  49:Core/Src/main.c **** 
  50:Core/Src/main.c **** /* USER CODE END PV */
  51:Core/Src/main.c **** 
  52:Core/Src/main.c **** /* Private function prototypes -----------------------------------------------*/
  53:Core/Src/main.c **** void SystemClock_Config(void);
  54:Core/Src/main.c **** /* USER CODE BEGIN PFP */
  55:Core/Src/main.c **** int _write(int fd, unsigned char *ptr, int len)
  56:Core/Src/main.c **** {
  30              		.loc 1 56 1 view -0
  31              		.cfi_startproc
  32              		@ args = 0, pretend = 0, frame = 0
  33              		@ frame_needed = 0, uses_anonymous_args = 0
  34              		.loc 1 56 1 is_stmt 0 view .LVU1
  35 0000 10B5     		push	{r4, lr}
  36              	.LCFI0:
  37              		.cfi_def_cfa_offset 8
  38              		.cfi_offset 4, -8
  39              		.cfi_offset 14, -4
  40 0002 0846     		mov	r0, r1
  41              	.LVL1:
  42              		.loc 1 56 1 view .LVU2
  43 0004 1446     		mov	r4, r2
  57:Core/Src/main.c **** 	if (CDC_Transmit_FS(ptr,len) != HAL_OK)
  44              		.loc 1 57 2 is_stmt 1 view .LVU3
  45              	.LBB4:
  46              		.loc 1 57 6 is_stmt 0 view .LVU4
  47 0006 1146     		mov	r1, r2
  48              	.LVL2:
  49              		.loc 1 57 6 view .LVU5
  50 0008 FFF7FEFF 		bl	CDC_Transmit_FS
  51              	.LVL3:
  52              		.loc 1 57 5 view .LVU6
  53 000c 08B9     		cbnz	r0, .L3
  54              	.LBE4:
  58:Core/Src/main.c **** 		return 0;
  59:Core/Src/main.c **** 
  60:Core/Src/main.c **** 	return len;
  55              		.loc 1 60 9 view .LVU7
ARM GAS  C:\Users\pierr\AppData\Local\Temp\ccR7Apju.s 			page 3


  56 000e 2046     		mov	r0, r4
  57              	.L1:
  61:Core/Src/main.c **** }
  58              		.loc 1 61 1 view .LVU8
  59 0010 10BD     		pop	{r4, pc}
  60              	.LVL4:
  61              	.L3:
  62              	.LBB5:
  58:Core/Src/main.c **** 		return 0;
  63              		.loc 1 58 10 view .LVU9
  64 0012 0020     		movs	r0, #0
  65 0014 FCE7     		b	.L1
  66              	.LBE5:
  67              		.cfi_endproc
  68              	.LFE126:
  70              		.section	.text.HAL_UART_RxCpltCallback,"ax",%progbits
  71              		.align	1
  72              		.global	HAL_UART_RxCpltCallback
  73              		.syntax unified
  74              		.thumb
  75              		.thumb_func
  76              		.fpu fpv4-sp-d16
  78              	HAL_UART_RxCpltCallback:
  79              	.LVL5:
  80              	.LFB127:
  62:Core/Src/main.c **** void HAL_UART_RxCpltCallback(UART_HandleTypeDef *huart)
  63:Core/Src/main.c **** {
  81              		.loc 1 63 1 is_stmt 1 view -0
  82              		.cfi_startproc
  83              		@ args = 0, pretend = 0, frame = 0
  84              		@ frame_needed = 0, uses_anonymous_args = 0
  85              		.loc 1 63 1 is_stmt 0 view .LVU11
  86 0000 08B5     		push	{r3, lr}
  87              	.LCFI1:
  88              		.cfi_def_cfa_offset 8
  89              		.cfi_offset 3, -8
  90              		.cfi_offset 14, -4
  64:Core/Src/main.c ****   readLidarData(&huart1,&lidar);
  91              		.loc 1 64 3 is_stmt 1 view .LVU12
  92 0002 0249     		ldr	r1, .L7
  93 0004 0248     		ldr	r0, .L7+4
  94              	.LVL6:
  95              		.loc 1 64 3 is_stmt 0 view .LVU13
  96 0006 FFF7FEFF 		bl	readLidarData
  97              	.LVL7:
  65:Core/Src/main.c **** }
  98              		.loc 1 65 1 view .LVU14
  99 000a 08BD     		pop	{r3, pc}
 100              	.L8:
 101              		.align	2
 102              	.L7:
 103 000c 00000000 		.word	lidar
 104 0010 00000000 		.word	huart1
 105              		.cfi_endproc
 106              	.LFE127:
 108              		.section	.text.Error_Handler,"ax",%progbits
 109              		.align	1
ARM GAS  C:\Users\pierr\AppData\Local\Temp\ccR7Apju.s 			page 4


 110              		.global	Error_Handler
 111              		.syntax unified
 112              		.thumb
 113              		.thumb_func
 114              		.fpu fpv4-sp-d16
 116              	Error_Handler:
 117              	.LFB130:
  66:Core/Src/main.c **** /* USER CODE END PFP */
  67:Core/Src/main.c **** 
  68:Core/Src/main.c **** /* Private user code ---------------------------------------------------------*/
  69:Core/Src/main.c **** /* USER CODE BEGIN 0 */
  70:Core/Src/main.c **** 
  71:Core/Src/main.c **** /* USER CODE END 0 */
  72:Core/Src/main.c **** 
  73:Core/Src/main.c **** /**
  74:Core/Src/main.c ****   * @brief  The application entry point.
  75:Core/Src/main.c ****   * @retval int
  76:Core/Src/main.c ****   */
  77:Core/Src/main.c **** int main(void)
  78:Core/Src/main.c **** {
  79:Core/Src/main.c ****   /* USER CODE BEGIN 1 */
  80:Core/Src/main.c **** 
  81:Core/Src/main.c ****   /* USER CODE END 1 */
  82:Core/Src/main.c **** 
  83:Core/Src/main.c ****   /* MCU Configuration--------------------------------------------------------*/
  84:Core/Src/main.c **** 
  85:Core/Src/main.c ****   /* Reset of all peripherals, Initializes the Flash interface and the Systick. */
  86:Core/Src/main.c ****   HAL_Init();
  87:Core/Src/main.c **** 
  88:Core/Src/main.c ****   /* USER CODE BEGIN Init */
  89:Core/Src/main.c **** 
  90:Core/Src/main.c ****   /* USER CODE END Init */
  91:Core/Src/main.c **** 
  92:Core/Src/main.c ****   /* Configure the system clock */
  93:Core/Src/main.c ****   SystemClock_Config();
  94:Core/Src/main.c **** 
  95:Core/Src/main.c ****   /* USER CODE BEGIN SysInit */
  96:Core/Src/main.c **** 
  97:Core/Src/main.c ****   /* USER CODE END SysInit */
  98:Core/Src/main.c **** 
  99:Core/Src/main.c ****   /* Initialize all configured peripherals */
 100:Core/Src/main.c ****   MX_GPIO_Init();
 101:Core/Src/main.c ****   MX_DMA_Init();
 102:Core/Src/main.c ****   MX_USART1_UART_Init();
 103:Core/Src/main.c ****   MX_USB_DEVICE_Init();
 104:Core/Src/main.c ****   /* USER CODE BEGIN 2 */
 105:Core/Src/main.c **** 
 106:Core/Src/main.c ****   /* USER CODE END 2 */
 107:Core/Src/main.c **** 
 108:Core/Src/main.c ****   /* Infinite loop */
 109:Core/Src/main.c ****   /* USER CODE BEGIN WHILE */
 110:Core/Src/main.c ****   while (1)
 111:Core/Src/main.c ****   {
 112:Core/Src/main.c ****     printf("distance=%f",lidar->distance);
 113:Core/Src/main.c ****     HAL_Delay(50);
 114:Core/Src/main.c ****     /* USER CODE END WHILE */
 115:Core/Src/main.c **** 
ARM GAS  C:\Users\pierr\AppData\Local\Temp\ccR7Apju.s 			page 5


 116:Core/Src/main.c ****     /* USER CODE BEGIN 3 */
 117:Core/Src/main.c ****   }
 118:Core/Src/main.c ****   /* USER CODE END 3 */
 119:Core/Src/main.c **** }
 120:Core/Src/main.c **** 
 121:Core/Src/main.c **** /**
 122:Core/Src/main.c ****   * @brief System Clock Configuration
 123:Core/Src/main.c ****   * @retval None
 124:Core/Src/main.c ****   */
 125:Core/Src/main.c **** void SystemClock_Config(void)
 126:Core/Src/main.c **** {
 127:Core/Src/main.c ****   RCC_OscInitTypeDef RCC_OscInitStruct = {0};
 128:Core/Src/main.c ****   RCC_ClkInitTypeDef RCC_ClkInitStruct = {0};
 129:Core/Src/main.c ****   RCC_PeriphCLKInitTypeDef PeriphClkInit = {0};
 130:Core/Src/main.c **** 
 131:Core/Src/main.c ****   /** Initializes the RCC Oscillators according to the specified parameters
 132:Core/Src/main.c ****   * in the RCC_OscInitTypeDef structure.
 133:Core/Src/main.c ****   */
 134:Core/Src/main.c ****   RCC_OscInitStruct.OscillatorType = RCC_OSCILLATORTYPE_HSE;
 135:Core/Src/main.c ****   RCC_OscInitStruct.HSEState = RCC_HSE_ON;
 136:Core/Src/main.c ****   RCC_OscInitStruct.HSEPredivValue = RCC_HSE_PREDIV_DIV1;
 137:Core/Src/main.c ****   RCC_OscInitStruct.HSIState = RCC_HSI_ON;
 138:Core/Src/main.c ****   RCC_OscInitStruct.PLL.PLLState = RCC_PLL_ON;
 139:Core/Src/main.c ****   RCC_OscInitStruct.PLL.PLLSource = RCC_PLLSOURCE_HSE;
 140:Core/Src/main.c ****   RCC_OscInitStruct.PLL.PLLMUL = RCC_PLL_MUL9;
 141:Core/Src/main.c ****   if (HAL_RCC_OscConfig(&RCC_OscInitStruct) != HAL_OK)
 142:Core/Src/main.c ****   {
 143:Core/Src/main.c ****     Error_Handler();
 144:Core/Src/main.c ****   }
 145:Core/Src/main.c ****   /** Initializes the CPU, AHB and APB buses clocks
 146:Core/Src/main.c ****   */
 147:Core/Src/main.c ****   RCC_ClkInitStruct.ClockType = RCC_CLOCKTYPE_HCLK|RCC_CLOCKTYPE_SYSCLK
 148:Core/Src/main.c ****                               |RCC_CLOCKTYPE_PCLK1|RCC_CLOCKTYPE_PCLK2;
 149:Core/Src/main.c ****   RCC_ClkInitStruct.SYSCLKSource = RCC_SYSCLKSOURCE_PLLCLK;
 150:Core/Src/main.c ****   RCC_ClkInitStruct.AHBCLKDivider = RCC_SYSCLK_DIV1;
 151:Core/Src/main.c ****   RCC_ClkInitStruct.APB1CLKDivider = RCC_HCLK_DIV2;
 152:Core/Src/main.c ****   RCC_ClkInitStruct.APB2CLKDivider = RCC_HCLK_DIV1;
 153:Core/Src/main.c **** 
 154:Core/Src/main.c ****   if (HAL_RCC_ClockConfig(&RCC_ClkInitStruct, FLASH_LATENCY_2) != HAL_OK)
 155:Core/Src/main.c ****   {
 156:Core/Src/main.c ****     Error_Handler();
 157:Core/Src/main.c ****   }
 158:Core/Src/main.c ****   PeriphClkInit.PeriphClockSelection = RCC_PERIPHCLK_USB|RCC_PERIPHCLK_USART1;
 159:Core/Src/main.c ****   PeriphClkInit.Usart1ClockSelection = RCC_USART1CLKSOURCE_PCLK1;
 160:Core/Src/main.c ****   PeriphClkInit.USBClockSelection = RCC_USBCLKSOURCE_PLL_DIV1_5;
 161:Core/Src/main.c ****   if (HAL_RCCEx_PeriphCLKConfig(&PeriphClkInit) != HAL_OK)
 162:Core/Src/main.c ****   {
 163:Core/Src/main.c ****     Error_Handler();
 164:Core/Src/main.c ****   }
 165:Core/Src/main.c **** }
 166:Core/Src/main.c **** 
 167:Core/Src/main.c **** /* USER CODE BEGIN 4 */
 168:Core/Src/main.c **** 
 169:Core/Src/main.c **** /* USER CODE END 4 */
 170:Core/Src/main.c **** 
 171:Core/Src/main.c **** /**
 172:Core/Src/main.c ****   * @brief  This function is executed in case of error occurrence.
ARM GAS  C:\Users\pierr\AppData\Local\Temp\ccR7Apju.s 			page 6


 173:Core/Src/main.c ****   * @retval None
 174:Core/Src/main.c ****   */
 175:Core/Src/main.c **** void Error_Handler(void)
 176:Core/Src/main.c **** {
 118              		.loc 1 176 1 is_stmt 1 view -0
 119              		.cfi_startproc
 120              		@ Volatile: function does not return.
 121              		@ args = 0, pretend = 0, frame = 0
 122              		@ frame_needed = 0, uses_anonymous_args = 0
 123              		@ link register save eliminated.
 177:Core/Src/main.c ****   /* USER CODE BEGIN Error_Handler_Debug */
 178:Core/Src/main.c ****   /* User can add his own implementation to report the HAL error return state */
 179:Core/Src/main.c ****   __disable_irq();
 124              		.loc 1 179 3 view .LVU16
 125              	.LBB6:
 126              	.LBI6:
 127              		.file 2 "Drivers/CMSIS/Include/cmsis_gcc.h"
   1:Drivers/CMSIS/Include/cmsis_gcc.h **** /**************************************************************************//**
   2:Drivers/CMSIS/Include/cmsis_gcc.h ****  * @file     cmsis_gcc.h
   3:Drivers/CMSIS/Include/cmsis_gcc.h ****  * @brief    CMSIS compiler GCC header file
   4:Drivers/CMSIS/Include/cmsis_gcc.h ****  * @version  V5.0.4
   5:Drivers/CMSIS/Include/cmsis_gcc.h ****  * @date     09. April 2018
   6:Drivers/CMSIS/Include/cmsis_gcc.h ****  ******************************************************************************/
   7:Drivers/CMSIS/Include/cmsis_gcc.h **** /*
   8:Drivers/CMSIS/Include/cmsis_gcc.h ****  * Copyright (c) 2009-2018 Arm Limited. All rights reserved.
   9:Drivers/CMSIS/Include/cmsis_gcc.h ****  *
  10:Drivers/CMSIS/Include/cmsis_gcc.h ****  * SPDX-License-Identifier: Apache-2.0
  11:Drivers/CMSIS/Include/cmsis_gcc.h ****  *
  12:Drivers/CMSIS/Include/cmsis_gcc.h ****  * Licensed under the Apache License, Version 2.0 (the License); you may
  13:Drivers/CMSIS/Include/cmsis_gcc.h ****  * not use this file except in compliance with the License.
  14:Drivers/CMSIS/Include/cmsis_gcc.h ****  * You may obtain a copy of the License at
  15:Drivers/CMSIS/Include/cmsis_gcc.h ****  *
  16:Drivers/CMSIS/Include/cmsis_gcc.h ****  * www.apache.org/licenses/LICENSE-2.0
  17:Drivers/CMSIS/Include/cmsis_gcc.h ****  *
  18:Drivers/CMSIS/Include/cmsis_gcc.h ****  * Unless required by applicable law or agreed to in writing, software
  19:Drivers/CMSIS/Include/cmsis_gcc.h ****  * distributed under the License is distributed on an AS IS BASIS, WITHOUT
  20:Drivers/CMSIS/Include/cmsis_gcc.h ****  * WARRANTIES OR CONDITIONS OF ANY KIND, either express or implied.
  21:Drivers/CMSIS/Include/cmsis_gcc.h ****  * See the License for the specific language governing permissions and
  22:Drivers/CMSIS/Include/cmsis_gcc.h ****  * limitations under the License.
  23:Drivers/CMSIS/Include/cmsis_gcc.h ****  */
  24:Drivers/CMSIS/Include/cmsis_gcc.h **** 
  25:Drivers/CMSIS/Include/cmsis_gcc.h **** #ifndef __CMSIS_GCC_H
  26:Drivers/CMSIS/Include/cmsis_gcc.h **** #define __CMSIS_GCC_H
  27:Drivers/CMSIS/Include/cmsis_gcc.h **** 
  28:Drivers/CMSIS/Include/cmsis_gcc.h **** /* ignore some GCC warnings */
  29:Drivers/CMSIS/Include/cmsis_gcc.h **** #pragma GCC diagnostic push
  30:Drivers/CMSIS/Include/cmsis_gcc.h **** #pragma GCC diagnostic ignored "-Wsign-conversion"
  31:Drivers/CMSIS/Include/cmsis_gcc.h **** #pragma GCC diagnostic ignored "-Wconversion"
  32:Drivers/CMSIS/Include/cmsis_gcc.h **** #pragma GCC diagnostic ignored "-Wunused-parameter"
  33:Drivers/CMSIS/Include/cmsis_gcc.h **** 
  34:Drivers/CMSIS/Include/cmsis_gcc.h **** /* Fallback for __has_builtin */
  35:Drivers/CMSIS/Include/cmsis_gcc.h **** #ifndef __has_builtin
  36:Drivers/CMSIS/Include/cmsis_gcc.h ****   #define __has_builtin(x) (0)
  37:Drivers/CMSIS/Include/cmsis_gcc.h **** #endif
  38:Drivers/CMSIS/Include/cmsis_gcc.h **** 
  39:Drivers/CMSIS/Include/cmsis_gcc.h **** /* CMSIS compiler specific defines */
  40:Drivers/CMSIS/Include/cmsis_gcc.h **** #ifndef   __ASM
ARM GAS  C:\Users\pierr\AppData\Local\Temp\ccR7Apju.s 			page 7


  41:Drivers/CMSIS/Include/cmsis_gcc.h ****   #define __ASM                                  __asm
  42:Drivers/CMSIS/Include/cmsis_gcc.h **** #endif
  43:Drivers/CMSIS/Include/cmsis_gcc.h **** #ifndef   __INLINE
  44:Drivers/CMSIS/Include/cmsis_gcc.h ****   #define __INLINE                               inline
  45:Drivers/CMSIS/Include/cmsis_gcc.h **** #endif
  46:Drivers/CMSIS/Include/cmsis_gcc.h **** #ifndef   __STATIC_INLINE
  47:Drivers/CMSIS/Include/cmsis_gcc.h ****   #define __STATIC_INLINE                        static inline
  48:Drivers/CMSIS/Include/cmsis_gcc.h **** #endif
  49:Drivers/CMSIS/Include/cmsis_gcc.h **** #ifndef   __STATIC_FORCEINLINE                 
  50:Drivers/CMSIS/Include/cmsis_gcc.h ****   #define __STATIC_FORCEINLINE                   __attribute__((always_inline)) static inline
  51:Drivers/CMSIS/Include/cmsis_gcc.h **** #endif                                           
  52:Drivers/CMSIS/Include/cmsis_gcc.h **** #ifndef   __NO_RETURN
  53:Drivers/CMSIS/Include/cmsis_gcc.h ****   #define __NO_RETURN                            __attribute__((__noreturn__))
  54:Drivers/CMSIS/Include/cmsis_gcc.h **** #endif
  55:Drivers/CMSIS/Include/cmsis_gcc.h **** #ifndef   __USED
  56:Drivers/CMSIS/Include/cmsis_gcc.h ****   #define __USED                                 __attribute__((used))
  57:Drivers/CMSIS/Include/cmsis_gcc.h **** #endif
  58:Drivers/CMSIS/Include/cmsis_gcc.h **** #ifndef   __WEAK
  59:Drivers/CMSIS/Include/cmsis_gcc.h ****   #define __WEAK                                 __attribute__((weak))
  60:Drivers/CMSIS/Include/cmsis_gcc.h **** #endif
  61:Drivers/CMSIS/Include/cmsis_gcc.h **** #ifndef   __PACKED
  62:Drivers/CMSIS/Include/cmsis_gcc.h ****   #define __PACKED                               __attribute__((packed, aligned(1)))
  63:Drivers/CMSIS/Include/cmsis_gcc.h **** #endif
  64:Drivers/CMSIS/Include/cmsis_gcc.h **** #ifndef   __PACKED_STRUCT
  65:Drivers/CMSIS/Include/cmsis_gcc.h ****   #define __PACKED_STRUCT                        struct __attribute__((packed, aligned(1)))
  66:Drivers/CMSIS/Include/cmsis_gcc.h **** #endif
  67:Drivers/CMSIS/Include/cmsis_gcc.h **** #ifndef   __PACKED_UNION
  68:Drivers/CMSIS/Include/cmsis_gcc.h ****   #define __PACKED_UNION                         union __attribute__((packed, aligned(1)))
  69:Drivers/CMSIS/Include/cmsis_gcc.h **** #endif
  70:Drivers/CMSIS/Include/cmsis_gcc.h **** #ifndef   __UNALIGNED_UINT32        /* deprecated */
  71:Drivers/CMSIS/Include/cmsis_gcc.h ****   #pragma GCC diagnostic push
  72:Drivers/CMSIS/Include/cmsis_gcc.h ****   #pragma GCC diagnostic ignored "-Wpacked"
  73:Drivers/CMSIS/Include/cmsis_gcc.h ****   #pragma GCC diagnostic ignored "-Wattributes"
  74:Drivers/CMSIS/Include/cmsis_gcc.h ****   struct __attribute__((packed)) T_UINT32 { uint32_t v; };
  75:Drivers/CMSIS/Include/cmsis_gcc.h ****   #pragma GCC diagnostic pop
  76:Drivers/CMSIS/Include/cmsis_gcc.h ****   #define __UNALIGNED_UINT32(x)                  (((struct T_UINT32 *)(x))->v)
  77:Drivers/CMSIS/Include/cmsis_gcc.h **** #endif
  78:Drivers/CMSIS/Include/cmsis_gcc.h **** #ifndef   __UNALIGNED_UINT16_WRITE
  79:Drivers/CMSIS/Include/cmsis_gcc.h ****   #pragma GCC diagnostic push
  80:Drivers/CMSIS/Include/cmsis_gcc.h ****   #pragma GCC diagnostic ignored "-Wpacked"
  81:Drivers/CMSIS/Include/cmsis_gcc.h ****   #pragma GCC diagnostic ignored "-Wattributes"
  82:Drivers/CMSIS/Include/cmsis_gcc.h ****   __PACKED_STRUCT T_UINT16_WRITE { uint16_t v; };
  83:Drivers/CMSIS/Include/cmsis_gcc.h ****   #pragma GCC diagnostic pop
  84:Drivers/CMSIS/Include/cmsis_gcc.h ****   #define __UNALIGNED_UINT16_WRITE(addr, val)    (void)((((struct T_UINT16_WRITE *)(void *)(addr))-
  85:Drivers/CMSIS/Include/cmsis_gcc.h **** #endif
  86:Drivers/CMSIS/Include/cmsis_gcc.h **** #ifndef   __UNALIGNED_UINT16_READ
  87:Drivers/CMSIS/Include/cmsis_gcc.h ****   #pragma GCC diagnostic push
  88:Drivers/CMSIS/Include/cmsis_gcc.h ****   #pragma GCC diagnostic ignored "-Wpacked"
  89:Drivers/CMSIS/Include/cmsis_gcc.h ****   #pragma GCC diagnostic ignored "-Wattributes"
  90:Drivers/CMSIS/Include/cmsis_gcc.h ****   __PACKED_STRUCT T_UINT16_READ { uint16_t v; };
  91:Drivers/CMSIS/Include/cmsis_gcc.h ****   #pragma GCC diagnostic pop
  92:Drivers/CMSIS/Include/cmsis_gcc.h ****   #define __UNALIGNED_UINT16_READ(addr)          (((const struct T_UINT16_READ *)(const void *)(add
  93:Drivers/CMSIS/Include/cmsis_gcc.h **** #endif
  94:Drivers/CMSIS/Include/cmsis_gcc.h **** #ifndef   __UNALIGNED_UINT32_WRITE
  95:Drivers/CMSIS/Include/cmsis_gcc.h ****   #pragma GCC diagnostic push
  96:Drivers/CMSIS/Include/cmsis_gcc.h ****   #pragma GCC diagnostic ignored "-Wpacked"
  97:Drivers/CMSIS/Include/cmsis_gcc.h ****   #pragma GCC diagnostic ignored "-Wattributes"
ARM GAS  C:\Users\pierr\AppData\Local\Temp\ccR7Apju.s 			page 8


  98:Drivers/CMSIS/Include/cmsis_gcc.h ****   __PACKED_STRUCT T_UINT32_WRITE { uint32_t v; };
  99:Drivers/CMSIS/Include/cmsis_gcc.h ****   #pragma GCC diagnostic pop
 100:Drivers/CMSIS/Include/cmsis_gcc.h ****   #define __UNALIGNED_UINT32_WRITE(addr, val)    (void)((((struct T_UINT32_WRITE *)(void *)(addr))-
 101:Drivers/CMSIS/Include/cmsis_gcc.h **** #endif
 102:Drivers/CMSIS/Include/cmsis_gcc.h **** #ifndef   __UNALIGNED_UINT32_READ
 103:Drivers/CMSIS/Include/cmsis_gcc.h ****   #pragma GCC diagnostic push
 104:Drivers/CMSIS/Include/cmsis_gcc.h ****   #pragma GCC diagnostic ignored "-Wpacked"
 105:Drivers/CMSIS/Include/cmsis_gcc.h ****   #pragma GCC diagnostic ignored "-Wattributes"
 106:Drivers/CMSIS/Include/cmsis_gcc.h ****   __PACKED_STRUCT T_UINT32_READ { uint32_t v; };
 107:Drivers/CMSIS/Include/cmsis_gcc.h ****   #pragma GCC diagnostic pop
 108:Drivers/CMSIS/Include/cmsis_gcc.h ****   #define __UNALIGNED_UINT32_READ(addr)          (((const struct T_UINT32_READ *)(const void *)(add
 109:Drivers/CMSIS/Include/cmsis_gcc.h **** #endif
 110:Drivers/CMSIS/Include/cmsis_gcc.h **** #ifndef   __ALIGNED
 111:Drivers/CMSIS/Include/cmsis_gcc.h ****   #define __ALIGNED(x)                           __attribute__((aligned(x)))
 112:Drivers/CMSIS/Include/cmsis_gcc.h **** #endif
 113:Drivers/CMSIS/Include/cmsis_gcc.h **** #ifndef   __RESTRICT
 114:Drivers/CMSIS/Include/cmsis_gcc.h ****   #define __RESTRICT                             __restrict
 115:Drivers/CMSIS/Include/cmsis_gcc.h **** #endif
 116:Drivers/CMSIS/Include/cmsis_gcc.h **** 
 117:Drivers/CMSIS/Include/cmsis_gcc.h **** 
 118:Drivers/CMSIS/Include/cmsis_gcc.h **** /* ###########################  Core Function Access  ########################### */
 119:Drivers/CMSIS/Include/cmsis_gcc.h **** /** \ingroup  CMSIS_Core_FunctionInterface
 120:Drivers/CMSIS/Include/cmsis_gcc.h ****     \defgroup CMSIS_Core_RegAccFunctions CMSIS Core Register Access Functions
 121:Drivers/CMSIS/Include/cmsis_gcc.h ****   @{
 122:Drivers/CMSIS/Include/cmsis_gcc.h ****  */
 123:Drivers/CMSIS/Include/cmsis_gcc.h **** 
 124:Drivers/CMSIS/Include/cmsis_gcc.h **** /**
 125:Drivers/CMSIS/Include/cmsis_gcc.h ****   \brief   Enable IRQ Interrupts
 126:Drivers/CMSIS/Include/cmsis_gcc.h ****   \details Enables IRQ interrupts by clearing the I-bit in the CPSR.
 127:Drivers/CMSIS/Include/cmsis_gcc.h ****            Can only be executed in Privileged modes.
 128:Drivers/CMSIS/Include/cmsis_gcc.h ****  */
 129:Drivers/CMSIS/Include/cmsis_gcc.h **** __STATIC_FORCEINLINE void __enable_irq(void)
 130:Drivers/CMSIS/Include/cmsis_gcc.h **** {
 131:Drivers/CMSIS/Include/cmsis_gcc.h ****   __ASM volatile ("cpsie i" : : : "memory");
 132:Drivers/CMSIS/Include/cmsis_gcc.h **** }
 133:Drivers/CMSIS/Include/cmsis_gcc.h **** 
 134:Drivers/CMSIS/Include/cmsis_gcc.h **** 
 135:Drivers/CMSIS/Include/cmsis_gcc.h **** /**
 136:Drivers/CMSIS/Include/cmsis_gcc.h ****   \brief   Disable IRQ Interrupts
 137:Drivers/CMSIS/Include/cmsis_gcc.h ****   \details Disables IRQ interrupts by setting the I-bit in the CPSR.
 138:Drivers/CMSIS/Include/cmsis_gcc.h ****            Can only be executed in Privileged modes.
 139:Drivers/CMSIS/Include/cmsis_gcc.h ****  */
 140:Drivers/CMSIS/Include/cmsis_gcc.h **** __STATIC_FORCEINLINE void __disable_irq(void)
 128              		.loc 2 140 27 view .LVU17
 129              	.LBB7:
 141:Drivers/CMSIS/Include/cmsis_gcc.h **** {
 142:Drivers/CMSIS/Include/cmsis_gcc.h ****   __ASM volatile ("cpsid i" : : : "memory");
 130              		.loc 2 142 3 view .LVU18
 131              		.syntax unified
 132              	@ 142 "Drivers/CMSIS/Include/cmsis_gcc.h" 1
 133 0000 72B6     		cpsid i
 134              	@ 0 "" 2
 135              		.thumb
 136              		.syntax unified
 137              	.L10:
 138              	.LBE7:
 139              	.LBE6:
ARM GAS  C:\Users\pierr\AppData\Local\Temp\ccR7Apju.s 			page 9


 180:Core/Src/main.c ****   while (1)
 140              		.loc 1 180 3 discriminator 1 view .LVU19
 181:Core/Src/main.c ****   {
 182:Core/Src/main.c ****   }
 141              		.loc 1 182 3 discriminator 1 view .LVU20
 180:Core/Src/main.c ****   while (1)
 142              		.loc 1 180 9 discriminator 1 view .LVU21
 143 0002 FEE7     		b	.L10
 144              		.cfi_endproc
 145              	.LFE130:
 147              		.section	.text.SystemClock_Config,"ax",%progbits
 148              		.align	1
 149              		.global	SystemClock_Config
 150              		.syntax unified
 151              		.thumb
 152              		.thumb_func
 153              		.fpu fpv4-sp-d16
 155              	SystemClock_Config:
 156              	.LFB129:
 126:Core/Src/main.c ****   RCC_OscInitTypeDef RCC_OscInitStruct = {0};
 157              		.loc 1 126 1 view -0
 158              		.cfi_startproc
 159              		@ args = 0, pretend = 0, frame = 112
 160              		@ frame_needed = 0, uses_anonymous_args = 0
 161 0000 10B5     		push	{r4, lr}
 162              	.LCFI2:
 163              		.cfi_def_cfa_offset 8
 164              		.cfi_offset 4, -8
 165              		.cfi_offset 14, -4
 166 0002 9CB0     		sub	sp, sp, #112
 167              	.LCFI3:
 168              		.cfi_def_cfa_offset 120
 127:Core/Src/main.c ****   RCC_ClkInitTypeDef RCC_ClkInitStruct = {0};
 169              		.loc 1 127 3 view .LVU23
 127:Core/Src/main.c ****   RCC_ClkInitTypeDef RCC_ClkInitStruct = {0};
 170              		.loc 1 127 22 is_stmt 0 view .LVU24
 171 0004 0024     		movs	r4, #0
 172 0006 1594     		str	r4, [sp, #84]
 173 0008 1794     		str	r4, [sp, #92]
 174 000a 1894     		str	r4, [sp, #96]
 128:Core/Src/main.c ****   RCC_PeriphCLKInitTypeDef PeriphClkInit = {0};
 175              		.loc 1 128 3 is_stmt 1 view .LVU25
 128:Core/Src/main.c ****   RCC_PeriphCLKInitTypeDef PeriphClkInit = {0};
 176              		.loc 1 128 22 is_stmt 0 view .LVU26
 177 000c 0D94     		str	r4, [sp, #52]
 178 000e 0E94     		str	r4, [sp, #56]
 179 0010 0F94     		str	r4, [sp, #60]
 180 0012 1094     		str	r4, [sp, #64]
 181 0014 1194     		str	r4, [sp, #68]
 129:Core/Src/main.c **** 
 182              		.loc 1 129 3 is_stmt 1 view .LVU27
 129:Core/Src/main.c **** 
 183              		.loc 1 129 28 is_stmt 0 view .LVU28
 184 0016 3422     		movs	r2, #52
 185 0018 2146     		mov	r1, r4
 186 001a 6846     		mov	r0, sp
 187 001c FFF7FEFF 		bl	memset
ARM GAS  C:\Users\pierr\AppData\Local\Temp\ccR7Apju.s 			page 10


 188              	.LVL8:
 134:Core/Src/main.c ****   RCC_OscInitStruct.HSEState = RCC_HSE_ON;
 189              		.loc 1 134 3 is_stmt 1 view .LVU29
 134:Core/Src/main.c ****   RCC_OscInitStruct.HSEState = RCC_HSE_ON;
 190              		.loc 1 134 36 is_stmt 0 view .LVU30
 191 0020 0122     		movs	r2, #1
 192 0022 1292     		str	r2, [sp, #72]
 135:Core/Src/main.c ****   RCC_OscInitStruct.HSEPredivValue = RCC_HSE_PREDIV_DIV1;
 193              		.loc 1 135 3 is_stmt 1 view .LVU31
 135:Core/Src/main.c ****   RCC_OscInitStruct.HSEPredivValue = RCC_HSE_PREDIV_DIV1;
 194              		.loc 1 135 30 is_stmt 0 view .LVU32
 195 0024 4FF48033 		mov	r3, #65536
 196 0028 1393     		str	r3, [sp, #76]
 136:Core/Src/main.c ****   RCC_OscInitStruct.HSIState = RCC_HSI_ON;
 197              		.loc 1 136 3 is_stmt 1 view .LVU33
 136:Core/Src/main.c ****   RCC_OscInitStruct.HSIState = RCC_HSI_ON;
 198              		.loc 1 136 36 is_stmt 0 view .LVU34
 199 002a 1494     		str	r4, [sp, #80]
 137:Core/Src/main.c ****   RCC_OscInitStruct.PLL.PLLState = RCC_PLL_ON;
 200              		.loc 1 137 3 is_stmt 1 view .LVU35
 137:Core/Src/main.c ****   RCC_OscInitStruct.PLL.PLLState = RCC_PLL_ON;
 201              		.loc 1 137 30 is_stmt 0 view .LVU36
 202 002c 1692     		str	r2, [sp, #88]
 138:Core/Src/main.c ****   RCC_OscInitStruct.PLL.PLLSource = RCC_PLLSOURCE_HSE;
 203              		.loc 1 138 3 is_stmt 1 view .LVU37
 138:Core/Src/main.c ****   RCC_OscInitStruct.PLL.PLLSource = RCC_PLLSOURCE_HSE;
 204              		.loc 1 138 34 is_stmt 0 view .LVU38
 205 002e 0222     		movs	r2, #2
 206 0030 1992     		str	r2, [sp, #100]
 139:Core/Src/main.c ****   RCC_OscInitStruct.PLL.PLLMUL = RCC_PLL_MUL9;
 207              		.loc 1 139 3 is_stmt 1 view .LVU39
 139:Core/Src/main.c ****   RCC_OscInitStruct.PLL.PLLMUL = RCC_PLL_MUL9;
 208              		.loc 1 139 35 is_stmt 0 view .LVU40
 209 0032 1A93     		str	r3, [sp, #104]
 140:Core/Src/main.c ****   if (HAL_RCC_OscConfig(&RCC_OscInitStruct) != HAL_OK)
 210              		.loc 1 140 3 is_stmt 1 view .LVU41
 140:Core/Src/main.c ****   if (HAL_RCC_OscConfig(&RCC_OscInitStruct) != HAL_OK)
 211              		.loc 1 140 32 is_stmt 0 view .LVU42
 212 0034 4FF4E013 		mov	r3, #1835008
 213 0038 1B93     		str	r3, [sp, #108]
 141:Core/Src/main.c ****   {
 214              		.loc 1 141 3 is_stmt 1 view .LVU43
 141:Core/Src/main.c ****   {
 215              		.loc 1 141 7 is_stmt 0 view .LVU44
 216 003a 12A8     		add	r0, sp, #72
 217 003c FFF7FEFF 		bl	HAL_RCC_OscConfig
 218              	.LVL9:
 141:Core/Src/main.c ****   {
 219              		.loc 1 141 6 view .LVU45
 220 0040 C0B9     		cbnz	r0, .L16
 147:Core/Src/main.c ****                               |RCC_CLOCKTYPE_PCLK1|RCC_CLOCKTYPE_PCLK2;
 221              		.loc 1 147 3 is_stmt 1 view .LVU46
 147:Core/Src/main.c ****                               |RCC_CLOCKTYPE_PCLK1|RCC_CLOCKTYPE_PCLK2;
 222              		.loc 1 147 31 is_stmt 0 view .LVU47
 223 0042 0F23     		movs	r3, #15
 224 0044 0D93     		str	r3, [sp, #52]
 149:Core/Src/main.c ****   RCC_ClkInitStruct.AHBCLKDivider = RCC_SYSCLK_DIV1;
ARM GAS  C:\Users\pierr\AppData\Local\Temp\ccR7Apju.s 			page 11


 225              		.loc 1 149 3 is_stmt 1 view .LVU48
 149:Core/Src/main.c ****   RCC_ClkInitStruct.AHBCLKDivider = RCC_SYSCLK_DIV1;
 226              		.loc 1 149 34 is_stmt 0 view .LVU49
 227 0046 0221     		movs	r1, #2
 228 0048 0E91     		str	r1, [sp, #56]
 150:Core/Src/main.c ****   RCC_ClkInitStruct.APB1CLKDivider = RCC_HCLK_DIV2;
 229              		.loc 1 150 3 is_stmt 1 view .LVU50
 150:Core/Src/main.c ****   RCC_ClkInitStruct.APB1CLKDivider = RCC_HCLK_DIV2;
 230              		.loc 1 150 35 is_stmt 0 view .LVU51
 231 004a 0023     		movs	r3, #0
 232 004c 0F93     		str	r3, [sp, #60]
 151:Core/Src/main.c ****   RCC_ClkInitStruct.APB2CLKDivider = RCC_HCLK_DIV1;
 233              		.loc 1 151 3 is_stmt 1 view .LVU52
 151:Core/Src/main.c ****   RCC_ClkInitStruct.APB2CLKDivider = RCC_HCLK_DIV1;
 234              		.loc 1 151 36 is_stmt 0 view .LVU53
 235 004e 4FF48062 		mov	r2, #1024
 236 0052 1092     		str	r2, [sp, #64]
 152:Core/Src/main.c **** 
 237              		.loc 1 152 3 is_stmt 1 view .LVU54
 152:Core/Src/main.c **** 
 238              		.loc 1 152 36 is_stmt 0 view .LVU55
 239 0054 1193     		str	r3, [sp, #68]
 154:Core/Src/main.c ****   {
 240              		.loc 1 154 3 is_stmt 1 view .LVU56
 154:Core/Src/main.c ****   {
 241              		.loc 1 154 7 is_stmt 0 view .LVU57
 242 0056 0DA8     		add	r0, sp, #52
 243 0058 FFF7FEFF 		bl	HAL_RCC_ClockConfig
 244              	.LVL10:
 154:Core/Src/main.c ****   {
 245              		.loc 1 154 6 view .LVU58
 246 005c 60B9     		cbnz	r0, .L17
 158:Core/Src/main.c ****   PeriphClkInit.Usart1ClockSelection = RCC_USART1CLKSOURCE_PCLK1;
 247              		.loc 1 158 3 is_stmt 1 view .LVU59
 158:Core/Src/main.c ****   PeriphClkInit.Usart1ClockSelection = RCC_USART1CLKSOURCE_PCLK1;
 248              		.loc 1 158 38 is_stmt 0 view .LVU60
 249 005e 084B     		ldr	r3, .L19
 250 0060 0093     		str	r3, [sp]
 159:Core/Src/main.c ****   PeriphClkInit.USBClockSelection = RCC_USBCLKSOURCE_PLL_DIV1_5;
 251              		.loc 1 159 3 is_stmt 1 view .LVU61
 159:Core/Src/main.c ****   PeriphClkInit.USBClockSelection = RCC_USBCLKSOURCE_PLL_DIV1_5;
 252              		.loc 1 159 38 is_stmt 0 view .LVU62
 253 0062 0023     		movs	r3, #0
 254 0064 0293     		str	r3, [sp, #8]
 160:Core/Src/main.c ****   if (HAL_RCCEx_PeriphCLKConfig(&PeriphClkInit) != HAL_OK)
 255              		.loc 1 160 3 is_stmt 1 view .LVU63
 160:Core/Src/main.c ****   if (HAL_RCCEx_PeriphCLKConfig(&PeriphClkInit) != HAL_OK)
 256              		.loc 1 160 35 is_stmt 0 view .LVU64
 257 0066 0C93     		str	r3, [sp, #48]
 161:Core/Src/main.c ****   {
 258              		.loc 1 161 3 is_stmt 1 view .LVU65
 161:Core/Src/main.c ****   {
 259              		.loc 1 161 7 is_stmt 0 view .LVU66
 260 0068 6846     		mov	r0, sp
 261 006a FFF7FEFF 		bl	HAL_RCCEx_PeriphCLKConfig
 262              	.LVL11:
 161:Core/Src/main.c ****   {
ARM GAS  C:\Users\pierr\AppData\Local\Temp\ccR7Apju.s 			page 12


 263              		.loc 1 161 6 view .LVU67
 264 006e 28B9     		cbnz	r0, .L18
 165:Core/Src/main.c **** 
 265              		.loc 1 165 1 view .LVU68
 266 0070 1CB0     		add	sp, sp, #112
 267              	.LCFI4:
 268              		.cfi_remember_state
 269              		.cfi_def_cfa_offset 8
 270              		@ sp needed
 271 0072 10BD     		pop	{r4, pc}
 272              	.L16:
 273              	.LCFI5:
 274              		.cfi_restore_state
 143:Core/Src/main.c ****   }
 275              		.loc 1 143 5 is_stmt 1 view .LVU69
 276 0074 FFF7FEFF 		bl	Error_Handler
 277              	.LVL12:
 278              	.L17:
 156:Core/Src/main.c ****   }
 279              		.loc 1 156 5 view .LVU70
 280 0078 FFF7FEFF 		bl	Error_Handler
 281              	.LVL13:
 282              	.L18:
 163:Core/Src/main.c ****   }
 283              		.loc 1 163 5 view .LVU71
 284 007c FFF7FEFF 		bl	Error_Handler
 285              	.LVL14:
 286              	.L20:
 287              		.align	2
 288              	.L19:
 289 0080 01000200 		.word	131073
 290              		.cfi_endproc
 291              	.LFE129:
 293              		.global	__aeabi_f2d
 294              		.section	.rodata.main.str1.4,"aMS",%progbits,1
 295              		.align	2
 296              	.LC0:
 297 0000 64697374 		.ascii	"distance=%f\000"
 297      616E6365 
 297      3D256600 
 298              		.section	.text.main,"ax",%progbits
 299              		.align	1
 300              		.global	main
 301              		.syntax unified
 302              		.thumb
 303              		.thumb_func
 304              		.fpu fpv4-sp-d16
 306              	main:
 307              	.LFB128:
  78:Core/Src/main.c ****   /* USER CODE BEGIN 1 */
 308              		.loc 1 78 1 view -0
 309              		.cfi_startproc
 310              		@ Volatile: function does not return.
 311              		@ args = 0, pretend = 0, frame = 0
 312              		@ frame_needed = 0, uses_anonymous_args = 0
 313 0000 08B5     		push	{r3, lr}
 314              	.LCFI6:
ARM GAS  C:\Users\pierr\AppData\Local\Temp\ccR7Apju.s 			page 13


 315              		.cfi_def_cfa_offset 8
 316              		.cfi_offset 3, -8
 317              		.cfi_offset 14, -4
  86:Core/Src/main.c **** 
 318              		.loc 1 86 3 view .LVU73
 319 0002 FFF7FEFF 		bl	HAL_Init
 320              	.LVL15:
  93:Core/Src/main.c **** 
 321              		.loc 1 93 3 view .LVU74
 322 0006 FFF7FEFF 		bl	SystemClock_Config
 323              	.LVL16:
 100:Core/Src/main.c ****   MX_DMA_Init();
 324              		.loc 1 100 3 view .LVU75
 325 000a FFF7FEFF 		bl	MX_GPIO_Init
 326              	.LVL17:
 101:Core/Src/main.c ****   MX_USART1_UART_Init();
 327              		.loc 1 101 3 view .LVU76
 328 000e FFF7FEFF 		bl	MX_DMA_Init
 329              	.LVL18:
 102:Core/Src/main.c ****   MX_USB_DEVICE_Init();
 330              		.loc 1 102 3 view .LVU77
 331 0012 FFF7FEFF 		bl	MX_USART1_UART_Init
 332              	.LVL19:
 103:Core/Src/main.c ****   /* USER CODE BEGIN 2 */
 333              		.loc 1 103 3 view .LVU78
 334 0016 FFF7FEFF 		bl	MX_USB_DEVICE_Init
 335              	.LVL20:
 336              	.L22:
 110:Core/Src/main.c ****   {
 337              		.loc 1 110 3 discriminator 1 view .LVU79
 112:Core/Src/main.c ****     HAL_Delay(50);
 338              		.loc 1 112 5 discriminator 1 view .LVU80
 112:Core/Src/main.c ****     HAL_Delay(50);
 339              		.loc 1 112 31 is_stmt 0 discriminator 1 view .LVU81
 340 001a 074B     		ldr	r3, .L24
 341 001c 1B68     		ldr	r3, [r3]
 112:Core/Src/main.c ****     HAL_Delay(50);
 342              		.loc 1 112 5 discriminator 1 view .LVU82
 343 001e 9869     		ldr	r0, [r3, #24]	@ float
 344 0020 FFF7FEFF 		bl	__aeabi_f2d
 345              	.LVL21:
 346 0024 0246     		mov	r2, r0
 347 0026 0B46     		mov	r3, r1
 348 0028 0448     		ldr	r0, .L24+4
 349 002a FFF7FEFF 		bl	printf
 350              	.LVL22:
 113:Core/Src/main.c ****     /* USER CODE END WHILE */
 351              		.loc 1 113 5 is_stmt 1 discriminator 1 view .LVU83
 352 002e 3220     		movs	r0, #50
 353 0030 FFF7FEFF 		bl	HAL_Delay
 354              	.LVL23:
 110:Core/Src/main.c ****   {
 355              		.loc 1 110 9 discriminator 1 view .LVU84
 356 0034 F1E7     		b	.L22
 357              	.L25:
 358 0036 00BF     		.align	2
 359              	.L24:
ARM GAS  C:\Users\pierr\AppData\Local\Temp\ccR7Apju.s 			page 14


 360 0038 00000000 		.word	lidar
 361 003c 00000000 		.word	.LC0
 362              		.cfi_endproc
 363              	.LFE128:
 365              		.comm	lidar,4,4
 366              		.text
 367              	.Letext0:
 368              		.file 3 "c:\\users\\pierr\\.vscode\\extensions\\buzzyelectronics.stm-helper-1.2.9\\armgcc\\arm-non
 369              		.file 4 "c:\\users\\pierr\\.vscode\\extensions\\buzzyelectronics.stm-helper-1.2.9\\armgcc\\arm-non
 370              		.file 5 "Drivers/CMSIS/Include/core_cm4.h"
 371              		.file 6 "Drivers/CMSIS/Device/ST/STM32F3xx/Include/system_stm32f3xx.h"
 372              		.file 7 "Drivers/CMSIS/Device/ST/STM32F3xx/Include/stm32f302x8.h"
 373              		.file 8 "Drivers/STM32F3xx_HAL_Driver/Inc/stm32f3xx_hal_def.h"
 374              		.file 9 "Drivers/STM32F3xx_HAL_Driver/Inc/stm32f3xx_hal_rcc.h"
 375              		.file 10 "Drivers/STM32F3xx_HAL_Driver/Inc/stm32f3xx_hal_rcc_ex.h"
 376              		.file 11 "Drivers/STM32F3xx_HAL_Driver/Inc/stm32f3xx_hal_dma.h"
 377              		.file 12 "Drivers/STM32F3xx_HAL_Driver/Inc/stm32f3xx_hal_uart.h"
 378              		.file 13 "Drivers/STM32F3xx_HAL_Driver/Inc/stm32f3xx_hal.h"
 379              		.file 14 "Core/Inc/usart.h"
 380              		.file 15 "c:\\users\\pierr\\.vscode\\extensions\\buzzyelectronics.stm-helper-1.2.9\\armgcc\\arm-no
 381              		.file 16 "c:\\users\\pierr\\.vscode\\extensions\\buzzyelectronics.stm-helper-1.2.9\\armgcc\\arm-no
 382              		.file 17 "c:\\users\\pierr\\.vscode\\extensions\\buzzyelectronics.stm-helper-1.2.9\\armgcc\\lib\\g
 383              		.file 18 "c:\\users\\pierr\\.vscode\\extensions\\buzzyelectronics.stm-helper-1.2.9\\armgcc\\arm-no
 384              		.file 19 "Core/Inc/ld06.h"
 385              		.file 20 "c:\\users\\pierr\\.vscode\\extensions\\buzzyelectronics.stm-helper-1.2.9\\armgcc\\arm-no
 386              		.file 21 "Core/Inc/gpio.h"
 387              		.file 22 "Core/Inc/dma.h"
 388              		.file 23 "USB_DEVICE/App/usb_device.h"
 389              		.file 24 "c:\\users\\pierr\\.vscode\\extensions\\buzzyelectronics.stm-helper-1.2.9\\armgcc\\arm-no
 390              		.file 25 "<built-in>"
ARM GAS  C:\Users\pierr\AppData\Local\Temp\ccR7Apju.s 			page 15

