ARM GAS  C:\Users\PIERRE~1\AppData\Local\Temp\cc95UATo.s 			page 1


   1              		.cpu cortex-m4
   2              		.eabi_attribute 27, 1
   3              		.eabi_attribute 28, 1
   4              		.eabi_attribute 20, 1
   5              		.eabi_attribute 21, 1
   6              		.eabi_attribute 23, 3
   7              		.eabi_attribute 24, 1
   8              		.eabi_attribute 25, 1
   9              		.eabi_attribute 26, 1
  10              		.eabi_attribute 30, 1
  11              		.eabi_attribute 34, 1
  12              		.eabi_attribute 18, 4
  13              		.file	"usart.c"
  14              		.text
  15              	.Ltext0:
  16              		.cfi_sections	.debug_frame
  17              		.section	.text.MX_USART1_UART_Init,"ax",%progbits
  18              		.align	1
  19              		.global	MX_USART1_UART_Init
  20              		.arch armv7e-m
  21              		.syntax unified
  22              		.thumb
  23              		.thumb_func
  24              		.fpu fpv4-sp-d16
  26              	MX_USART1_UART_Init:
  27              	.LFB126:
  28              		.file 1 "Core/Src/usart.c"
   1:Core/Src/usart.c **** /**
   2:Core/Src/usart.c ****   ******************************************************************************
   3:Core/Src/usart.c ****   * @file    usart.c
   4:Core/Src/usart.c ****   * @brief   This file provides code for the configuration
   5:Core/Src/usart.c ****   *          of the USART instances.
   6:Core/Src/usart.c ****   ******************************************************************************
   7:Core/Src/usart.c ****   * @attention
   8:Core/Src/usart.c ****   *
   9:Core/Src/usart.c ****   * <h2><center>&copy; Copyright (c) 2021 STMicroelectronics.
  10:Core/Src/usart.c ****   * All rights reserved.</center></h2>
  11:Core/Src/usart.c ****   *
  12:Core/Src/usart.c ****   * This software component is licensed by ST under Ultimate Liberty license
  13:Core/Src/usart.c ****   * SLA0044, the "License"; You may not use this file except in compliance with
  14:Core/Src/usart.c ****   * the License. You may obtain a copy of the License at:
  15:Core/Src/usart.c ****   *                             www.st.com/SLA0044
  16:Core/Src/usart.c ****   *
  17:Core/Src/usart.c ****   ******************************************************************************
  18:Core/Src/usart.c ****   */
  19:Core/Src/usart.c **** 
  20:Core/Src/usart.c **** /* Includes ------------------------------------------------------------------*/
  21:Core/Src/usart.c **** #include "usart.h"
  22:Core/Src/usart.c **** 
  23:Core/Src/usart.c **** /* USER CODE BEGIN 0 */
  24:Core/Src/usart.c **** 
  25:Core/Src/usart.c **** /* USER CODE END 0 */
  26:Core/Src/usart.c **** 
  27:Core/Src/usart.c **** UART_HandleTypeDef huart1;
  28:Core/Src/usart.c **** DMA_HandleTypeDef hdma_usart1_rx;
  29:Core/Src/usart.c **** 
  30:Core/Src/usart.c **** /* USART1 init function */
ARM GAS  C:\Users\PIERRE~1\AppData\Local\Temp\cc95UATo.s 			page 2


  31:Core/Src/usart.c **** 
  32:Core/Src/usart.c **** void MX_USART1_UART_Init(void)
  33:Core/Src/usart.c **** {
  29              		.loc 1 33 1 view -0
  30              		.cfi_startproc
  31              		@ args = 0, pretend = 0, frame = 0
  32              		@ frame_needed = 0, uses_anonymous_args = 0
  33 0000 08B5     		push	{r3, lr}
  34              	.LCFI0:
  35              		.cfi_def_cfa_offset 8
  36              		.cfi_offset 3, -8
  37              		.cfi_offset 14, -4
  34:Core/Src/usart.c **** 
  35:Core/Src/usart.c ****   huart1.Instance = USART1;
  38              		.loc 1 35 3 view .LVU1
  39              		.loc 1 35 19 is_stmt 0 view .LVU2
  40 0002 0F48     		ldr	r0, .L5
  41 0004 0F4B     		ldr	r3, .L5+4
  42 0006 0360     		str	r3, [r0]
  36:Core/Src/usart.c ****   huart1.Init.BaudRate = 230400;
  43              		.loc 1 36 3 is_stmt 1 view .LVU3
  44              		.loc 1 36 24 is_stmt 0 view .LVU4
  45 0008 4FF46133 		mov	r3, #230400
  46 000c 4360     		str	r3, [r0, #4]
  37:Core/Src/usart.c ****   huart1.Init.WordLength = UART_WORDLENGTH_8B;
  47              		.loc 1 37 3 is_stmt 1 view .LVU5
  48              		.loc 1 37 26 is_stmt 0 view .LVU6
  49 000e 0023     		movs	r3, #0
  50 0010 8360     		str	r3, [r0, #8]
  38:Core/Src/usart.c ****   huart1.Init.StopBits = UART_STOPBITS_1;
  51              		.loc 1 38 3 is_stmt 1 view .LVU7
  52              		.loc 1 38 24 is_stmt 0 view .LVU8
  53 0012 C360     		str	r3, [r0, #12]
  39:Core/Src/usart.c ****   huart1.Init.Parity = UART_PARITY_NONE;
  54              		.loc 1 39 3 is_stmt 1 view .LVU9
  55              		.loc 1 39 22 is_stmt 0 view .LVU10
  56 0014 0361     		str	r3, [r0, #16]
  40:Core/Src/usart.c ****   huart1.Init.Mode = UART_MODE_TX_RX;
  57              		.loc 1 40 3 is_stmt 1 view .LVU11
  58              		.loc 1 40 20 is_stmt 0 view .LVU12
  59 0016 0C22     		movs	r2, #12
  60 0018 4261     		str	r2, [r0, #20]
  41:Core/Src/usart.c ****   huart1.Init.HwFlowCtl = UART_HWCONTROL_NONE;
  61              		.loc 1 41 3 is_stmt 1 view .LVU13
  62              		.loc 1 41 25 is_stmt 0 view .LVU14
  63 001a 8361     		str	r3, [r0, #24]
  42:Core/Src/usart.c ****   huart1.Init.OverSampling = UART_OVERSAMPLING_8;
  64              		.loc 1 42 3 is_stmt 1 view .LVU15
  65              		.loc 1 42 28 is_stmt 0 view .LVU16
  66 001c 4FF40042 		mov	r2, #32768
  67 0020 C261     		str	r2, [r0, #28]
  43:Core/Src/usart.c ****   huart1.Init.OneBitSampling = UART_ONE_BIT_SAMPLE_DISABLE;
  68              		.loc 1 43 3 is_stmt 1 view .LVU17
  69              		.loc 1 43 30 is_stmt 0 view .LVU18
  70 0022 0362     		str	r3, [r0, #32]
  44:Core/Src/usart.c ****   huart1.AdvancedInit.AdvFeatureInit = UART_ADVFEATURE_AUTOBAUDRATE_INIT;
  71              		.loc 1 44 3 is_stmt 1 view .LVU19
ARM GAS  C:\Users\PIERRE~1\AppData\Local\Temp\cc95UATo.s 			page 3


  72              		.loc 1 44 38 is_stmt 0 view .LVU20
  73 0024 4022     		movs	r2, #64
  74 0026 4262     		str	r2, [r0, #36]
  45:Core/Src/usart.c ****   huart1.AdvancedInit.AutoBaudRateEnable = UART_ADVFEATURE_AUTOBAUDRATE_ENABLE;
  75              		.loc 1 45 3 is_stmt 1 view .LVU21
  76              		.loc 1 45 42 is_stmt 0 view .LVU22
  77 0028 4FF48012 		mov	r2, #1048576
  78 002c 0264     		str	r2, [r0, #64]
  46:Core/Src/usart.c ****   huart1.AdvancedInit.AutoBaudRateMode = UART_ADVFEATURE_AUTOBAUDRATE_ONSTARTBIT;
  79              		.loc 1 46 3 is_stmt 1 view .LVU23
  80              		.loc 1 46 40 is_stmt 0 view .LVU24
  81 002e 4364     		str	r3, [r0, #68]
  47:Core/Src/usart.c ****   if (HAL_UART_Init(&huart1) != HAL_OK)
  82              		.loc 1 47 3 is_stmt 1 view .LVU25
  83              		.loc 1 47 7 is_stmt 0 view .LVU26
  84 0030 FFF7FEFF 		bl	HAL_UART_Init
  85              	.LVL0:
  86              		.loc 1 47 6 view .LVU27
  87 0034 00B9     		cbnz	r0, .L4
  88              	.L1:
  48:Core/Src/usart.c ****   {
  49:Core/Src/usart.c ****     Error_Handler();
  50:Core/Src/usart.c ****   }
  51:Core/Src/usart.c **** 
  52:Core/Src/usart.c **** }
  89              		.loc 1 52 1 view .LVU28
  90 0036 08BD     		pop	{r3, pc}
  91              	.L4:
  49:Core/Src/usart.c ****   }
  92              		.loc 1 49 5 is_stmt 1 view .LVU29
  93 0038 FFF7FEFF 		bl	Error_Handler
  94              	.LVL1:
  95              		.loc 1 52 1 is_stmt 0 view .LVU30
  96 003c FBE7     		b	.L1
  97              	.L6:
  98 003e 00BF     		.align	2
  99              	.L5:
 100 0040 00000000 		.word	huart1
 101 0044 00380140 		.word	1073821696
 102              		.cfi_endproc
 103              	.LFE126:
 105              		.section	.text.HAL_UART_MspInit,"ax",%progbits
 106              		.align	1
 107              		.global	HAL_UART_MspInit
 108              		.syntax unified
 109              		.thumb
 110              		.thumb_func
 111              		.fpu fpv4-sp-d16
 113              	HAL_UART_MspInit:
 114              	.LVL2:
 115              	.LFB127:
  53:Core/Src/usart.c **** 
  54:Core/Src/usart.c **** void HAL_UART_MspInit(UART_HandleTypeDef* uartHandle)
  55:Core/Src/usart.c **** {
 116              		.loc 1 55 1 is_stmt 1 view -0
 117              		.cfi_startproc
 118              		@ args = 0, pretend = 0, frame = 32
ARM GAS  C:\Users\PIERRE~1\AppData\Local\Temp\cc95UATo.s 			page 4


 119              		@ frame_needed = 0, uses_anonymous_args = 0
 120              		.loc 1 55 1 is_stmt 0 view .LVU32
 121 0000 30B5     		push	{r4, r5, lr}
 122              	.LCFI1:
 123              		.cfi_def_cfa_offset 12
 124              		.cfi_offset 4, -12
 125              		.cfi_offset 5, -8
 126              		.cfi_offset 14, -4
 127 0002 89B0     		sub	sp, sp, #36
 128              	.LCFI2:
 129              		.cfi_def_cfa_offset 48
  56:Core/Src/usart.c **** 
  57:Core/Src/usart.c ****   GPIO_InitTypeDef GPIO_InitStruct = {0};
 130              		.loc 1 57 3 is_stmt 1 view .LVU33
 131              		.loc 1 57 20 is_stmt 0 view .LVU34
 132 0004 0023     		movs	r3, #0
 133 0006 0393     		str	r3, [sp, #12]
 134 0008 0493     		str	r3, [sp, #16]
 135 000a 0593     		str	r3, [sp, #20]
 136 000c 0693     		str	r3, [sp, #24]
 137 000e 0793     		str	r3, [sp, #28]
  58:Core/Src/usart.c ****   if(uartHandle->Instance==USART1)
 138              		.loc 1 58 3 is_stmt 1 view .LVU35
 139              		.loc 1 58 16 is_stmt 0 view .LVU36
 140 0010 0268     		ldr	r2, [r0]
 141              		.loc 1 58 5 view .LVU37
 142 0012 254B     		ldr	r3, .L13
 143 0014 9A42     		cmp	r2, r3
 144 0016 01D0     		beq	.L11
 145              	.LVL3:
 146              	.L7:
  59:Core/Src/usart.c ****   {
  60:Core/Src/usart.c ****   /* USER CODE BEGIN USART1_MspInit 0 */
  61:Core/Src/usart.c **** 
  62:Core/Src/usart.c ****   /* USER CODE END USART1_MspInit 0 */
  63:Core/Src/usart.c ****     /* USART1 clock enable */
  64:Core/Src/usart.c ****     __HAL_RCC_USART1_CLK_ENABLE();
  65:Core/Src/usart.c **** 
  66:Core/Src/usart.c ****     __HAL_RCC_GPIOA_CLK_ENABLE();
  67:Core/Src/usart.c ****     /**USART1 GPIO Configuration
  68:Core/Src/usart.c ****     PA9     ------> USART1_TX
  69:Core/Src/usart.c ****     PA10     ------> USART1_RX
  70:Core/Src/usart.c ****     */
  71:Core/Src/usart.c ****     GPIO_InitStruct.Pin = GPIO_PIN_9|GPIO_PIN_10;
  72:Core/Src/usart.c ****     GPIO_InitStruct.Mode = GPIO_MODE_AF_PP;
  73:Core/Src/usart.c ****     GPIO_InitStruct.Pull = GPIO_NOPULL;
  74:Core/Src/usart.c ****     GPIO_InitStruct.Speed = GPIO_SPEED_FREQ_HIGH;
  75:Core/Src/usart.c ****     GPIO_InitStruct.Alternate = GPIO_AF7_USART1;
  76:Core/Src/usart.c ****     HAL_GPIO_Init(GPIOA, &GPIO_InitStruct);
  77:Core/Src/usart.c **** 
  78:Core/Src/usart.c ****     /* USART1 DMA Init */
  79:Core/Src/usart.c ****     /* USART1_RX Init */
  80:Core/Src/usart.c ****     hdma_usart1_rx.Instance = DMA1_Channel5;
  81:Core/Src/usart.c ****     hdma_usart1_rx.Init.Direction = DMA_PERIPH_TO_MEMORY;
  82:Core/Src/usart.c ****     hdma_usart1_rx.Init.PeriphInc = DMA_PINC_DISABLE;
  83:Core/Src/usart.c ****     hdma_usart1_rx.Init.MemInc = DMA_MINC_ENABLE;
  84:Core/Src/usart.c ****     hdma_usart1_rx.Init.PeriphDataAlignment = DMA_PDATAALIGN_BYTE;
ARM GAS  C:\Users\PIERRE~1\AppData\Local\Temp\cc95UATo.s 			page 5


  85:Core/Src/usart.c ****     hdma_usart1_rx.Init.MemDataAlignment = DMA_MDATAALIGN_BYTE;
  86:Core/Src/usart.c ****     hdma_usart1_rx.Init.Mode = DMA_CIRCULAR;
  87:Core/Src/usart.c ****     hdma_usart1_rx.Init.Priority = DMA_PRIORITY_HIGH;
  88:Core/Src/usart.c ****     if (HAL_DMA_Init(&hdma_usart1_rx) != HAL_OK)
  89:Core/Src/usart.c ****     {
  90:Core/Src/usart.c ****       Error_Handler();
  91:Core/Src/usart.c ****     }
  92:Core/Src/usart.c **** 
  93:Core/Src/usart.c ****     __HAL_LINKDMA(uartHandle,hdmarx,hdma_usart1_rx);
  94:Core/Src/usart.c **** 
  95:Core/Src/usart.c ****     /* USART1 interrupt Init */
  96:Core/Src/usart.c ****     HAL_NVIC_SetPriority(USART1_IRQn, 0, 0);
  97:Core/Src/usart.c ****     HAL_NVIC_EnableIRQ(USART1_IRQn);
  98:Core/Src/usart.c ****   /* USER CODE BEGIN USART1_MspInit 1 */
  99:Core/Src/usart.c **** 
 100:Core/Src/usart.c ****   /* USER CODE END USART1_MspInit 1 */
 101:Core/Src/usart.c ****   }
 102:Core/Src/usart.c **** }
 147              		.loc 1 102 1 view .LVU38
 148 0018 09B0     		add	sp, sp, #36
 149              	.LCFI3:
 150              		.cfi_remember_state
 151              		.cfi_def_cfa_offset 12
 152              		@ sp needed
 153 001a 30BD     		pop	{r4, r5, pc}
 154              	.LVL4:
 155              	.L11:
 156              	.LCFI4:
 157              		.cfi_restore_state
 158              		.loc 1 102 1 view .LVU39
 159 001c 0446     		mov	r4, r0
  64:Core/Src/usart.c **** 
 160              		.loc 1 64 5 is_stmt 1 view .LVU40
 161              	.LBB2:
  64:Core/Src/usart.c **** 
 162              		.loc 1 64 5 view .LVU41
  64:Core/Src/usart.c **** 
 163              		.loc 1 64 5 view .LVU42
 164 001e 03F55843 		add	r3, r3, #55296
 165 0022 9A69     		ldr	r2, [r3, #24]
 166 0024 42F48042 		orr	r2, r2, #16384
 167 0028 9A61     		str	r2, [r3, #24]
  64:Core/Src/usart.c **** 
 168              		.loc 1 64 5 view .LVU43
 169 002a 9A69     		ldr	r2, [r3, #24]
 170 002c 02F48042 		and	r2, r2, #16384
 171 0030 0192     		str	r2, [sp, #4]
  64:Core/Src/usart.c **** 
 172              		.loc 1 64 5 view .LVU44
 173 0032 019A     		ldr	r2, [sp, #4]
 174              	.LBE2:
  64:Core/Src/usart.c **** 
 175              		.loc 1 64 5 view .LVU45
  66:Core/Src/usart.c ****     /**USART1 GPIO Configuration
 176              		.loc 1 66 5 view .LVU46
 177              	.LBB3:
  66:Core/Src/usart.c ****     /**USART1 GPIO Configuration
ARM GAS  C:\Users\PIERRE~1\AppData\Local\Temp\cc95UATo.s 			page 6


 178              		.loc 1 66 5 view .LVU47
  66:Core/Src/usart.c ****     /**USART1 GPIO Configuration
 179              		.loc 1 66 5 view .LVU48
 180 0034 5A69     		ldr	r2, [r3, #20]
 181 0036 42F40032 		orr	r2, r2, #131072
 182 003a 5A61     		str	r2, [r3, #20]
  66:Core/Src/usart.c ****     /**USART1 GPIO Configuration
 183              		.loc 1 66 5 view .LVU49
 184 003c 5B69     		ldr	r3, [r3, #20]
 185 003e 03F40033 		and	r3, r3, #131072
 186 0042 0293     		str	r3, [sp, #8]
  66:Core/Src/usart.c ****     /**USART1 GPIO Configuration
 187              		.loc 1 66 5 view .LVU50
 188 0044 029B     		ldr	r3, [sp, #8]
 189              	.LBE3:
  66:Core/Src/usart.c ****     /**USART1 GPIO Configuration
 190              		.loc 1 66 5 view .LVU51
  71:Core/Src/usart.c ****     GPIO_InitStruct.Mode = GPIO_MODE_AF_PP;
 191              		.loc 1 71 5 view .LVU52
  71:Core/Src/usart.c ****     GPIO_InitStruct.Mode = GPIO_MODE_AF_PP;
 192              		.loc 1 71 25 is_stmt 0 view .LVU53
 193 0046 4FF4C063 		mov	r3, #1536
 194 004a 0393     		str	r3, [sp, #12]
  72:Core/Src/usart.c ****     GPIO_InitStruct.Pull = GPIO_NOPULL;
 195              		.loc 1 72 5 is_stmt 1 view .LVU54
  72:Core/Src/usart.c ****     GPIO_InitStruct.Pull = GPIO_NOPULL;
 196              		.loc 1 72 26 is_stmt 0 view .LVU55
 197 004c 0223     		movs	r3, #2
 198 004e 0493     		str	r3, [sp, #16]
  73:Core/Src/usart.c ****     GPIO_InitStruct.Speed = GPIO_SPEED_FREQ_HIGH;
 199              		.loc 1 73 5 is_stmt 1 view .LVU56
  73:Core/Src/usart.c ****     GPIO_InitStruct.Speed = GPIO_SPEED_FREQ_HIGH;
 200              		.loc 1 73 26 is_stmt 0 view .LVU57
 201 0050 0025     		movs	r5, #0
 202 0052 0595     		str	r5, [sp, #20]
  74:Core/Src/usart.c ****     GPIO_InitStruct.Alternate = GPIO_AF7_USART1;
 203              		.loc 1 74 5 is_stmt 1 view .LVU58
  74:Core/Src/usart.c ****     GPIO_InitStruct.Alternate = GPIO_AF7_USART1;
 204              		.loc 1 74 27 is_stmt 0 view .LVU59
 205 0054 0323     		movs	r3, #3
 206 0056 0693     		str	r3, [sp, #24]
  75:Core/Src/usart.c ****     HAL_GPIO_Init(GPIOA, &GPIO_InitStruct);
 207              		.loc 1 75 5 is_stmt 1 view .LVU60
  75:Core/Src/usart.c ****     HAL_GPIO_Init(GPIOA, &GPIO_InitStruct);
 208              		.loc 1 75 31 is_stmt 0 view .LVU61
 209 0058 0723     		movs	r3, #7
 210 005a 0793     		str	r3, [sp, #28]
  76:Core/Src/usart.c **** 
 211              		.loc 1 76 5 is_stmt 1 view .LVU62
 212 005c 03A9     		add	r1, sp, #12
 213 005e 4FF09040 		mov	r0, #1207959552
 214              	.LVL5:
  76:Core/Src/usart.c **** 
 215              		.loc 1 76 5 is_stmt 0 view .LVU63
 216 0062 FFF7FEFF 		bl	HAL_GPIO_Init
 217              	.LVL6:
  80:Core/Src/usart.c ****     hdma_usart1_rx.Init.Direction = DMA_PERIPH_TO_MEMORY;
ARM GAS  C:\Users\PIERRE~1\AppData\Local\Temp\cc95UATo.s 			page 7


 218              		.loc 1 80 5 is_stmt 1 view .LVU64
  80:Core/Src/usart.c ****     hdma_usart1_rx.Init.Direction = DMA_PERIPH_TO_MEMORY;
 219              		.loc 1 80 29 is_stmt 0 view .LVU65
 220 0066 1148     		ldr	r0, .L13+4
 221 0068 114B     		ldr	r3, .L13+8
 222 006a 0360     		str	r3, [r0]
  81:Core/Src/usart.c ****     hdma_usart1_rx.Init.PeriphInc = DMA_PINC_DISABLE;
 223              		.loc 1 81 5 is_stmt 1 view .LVU66
  81:Core/Src/usart.c ****     hdma_usart1_rx.Init.PeriphInc = DMA_PINC_DISABLE;
 224              		.loc 1 81 35 is_stmt 0 view .LVU67
 225 006c 4560     		str	r5, [r0, #4]
  82:Core/Src/usart.c ****     hdma_usart1_rx.Init.MemInc = DMA_MINC_ENABLE;
 226              		.loc 1 82 5 is_stmt 1 view .LVU68
  82:Core/Src/usart.c ****     hdma_usart1_rx.Init.MemInc = DMA_MINC_ENABLE;
 227              		.loc 1 82 35 is_stmt 0 view .LVU69
 228 006e 8560     		str	r5, [r0, #8]
  83:Core/Src/usart.c ****     hdma_usart1_rx.Init.PeriphDataAlignment = DMA_PDATAALIGN_BYTE;
 229              		.loc 1 83 5 is_stmt 1 view .LVU70
  83:Core/Src/usart.c ****     hdma_usart1_rx.Init.PeriphDataAlignment = DMA_PDATAALIGN_BYTE;
 230              		.loc 1 83 32 is_stmt 0 view .LVU71
 231 0070 8023     		movs	r3, #128
 232 0072 C360     		str	r3, [r0, #12]
  84:Core/Src/usart.c ****     hdma_usart1_rx.Init.MemDataAlignment = DMA_MDATAALIGN_BYTE;
 233              		.loc 1 84 5 is_stmt 1 view .LVU72
  84:Core/Src/usart.c ****     hdma_usart1_rx.Init.MemDataAlignment = DMA_MDATAALIGN_BYTE;
 234              		.loc 1 84 45 is_stmt 0 view .LVU73
 235 0074 0561     		str	r5, [r0, #16]
  85:Core/Src/usart.c ****     hdma_usart1_rx.Init.Mode = DMA_CIRCULAR;
 236              		.loc 1 85 5 is_stmt 1 view .LVU74
  85:Core/Src/usart.c ****     hdma_usart1_rx.Init.Mode = DMA_CIRCULAR;
 237              		.loc 1 85 42 is_stmt 0 view .LVU75
 238 0076 4561     		str	r5, [r0, #20]
  86:Core/Src/usart.c ****     hdma_usart1_rx.Init.Priority = DMA_PRIORITY_HIGH;
 239              		.loc 1 86 5 is_stmt 1 view .LVU76
  86:Core/Src/usart.c ****     hdma_usart1_rx.Init.Priority = DMA_PRIORITY_HIGH;
 240              		.loc 1 86 30 is_stmt 0 view .LVU77
 241 0078 2023     		movs	r3, #32
 242 007a 8361     		str	r3, [r0, #24]
  87:Core/Src/usart.c ****     if (HAL_DMA_Init(&hdma_usart1_rx) != HAL_OK)
 243              		.loc 1 87 5 is_stmt 1 view .LVU78
  87:Core/Src/usart.c ****     if (HAL_DMA_Init(&hdma_usart1_rx) != HAL_OK)
 244              		.loc 1 87 34 is_stmt 0 view .LVU79
 245 007c 4FF40053 		mov	r3, #8192
 246 0080 C361     		str	r3, [r0, #28]
  88:Core/Src/usart.c ****     {
 247              		.loc 1 88 5 is_stmt 1 view .LVU80
  88:Core/Src/usart.c ****     {
 248              		.loc 1 88 9 is_stmt 0 view .LVU81
 249 0082 FFF7FEFF 		bl	HAL_DMA_Init
 250              	.LVL7:
  88:Core/Src/usart.c ****     {
 251              		.loc 1 88 8 view .LVU82
 252 0086 58B9     		cbnz	r0, .L12
 253              	.L9:
  93:Core/Src/usart.c **** 
 254              		.loc 1 93 5 is_stmt 1 view .LVU83
  93:Core/Src/usart.c **** 
ARM GAS  C:\Users\PIERRE~1\AppData\Local\Temp\cc95UATo.s 			page 8


 255              		.loc 1 93 5 view .LVU84
 256 0088 084B     		ldr	r3, .L13+4
 257 008a 2367     		str	r3, [r4, #112]
  93:Core/Src/usart.c **** 
 258              		.loc 1 93 5 view .LVU85
 259 008c 5C62     		str	r4, [r3, #36]
  93:Core/Src/usart.c **** 
 260              		.loc 1 93 5 view .LVU86
  96:Core/Src/usart.c ****     HAL_NVIC_EnableIRQ(USART1_IRQn);
 261              		.loc 1 96 5 view .LVU87
 262 008e 0022     		movs	r2, #0
 263 0090 1146     		mov	r1, r2
 264 0092 2520     		movs	r0, #37
 265 0094 FFF7FEFF 		bl	HAL_NVIC_SetPriority
 266              	.LVL8:
  97:Core/Src/usart.c ****   /* USER CODE BEGIN USART1_MspInit 1 */
 267              		.loc 1 97 5 view .LVU88
 268 0098 2520     		movs	r0, #37
 269 009a FFF7FEFF 		bl	HAL_NVIC_EnableIRQ
 270              	.LVL9:
 271              		.loc 1 102 1 is_stmt 0 view .LVU89
 272 009e BBE7     		b	.L7
 273              	.L12:
  90:Core/Src/usart.c ****     }
 274              		.loc 1 90 7 is_stmt 1 view .LVU90
 275 00a0 FFF7FEFF 		bl	Error_Handler
 276              	.LVL10:
 277 00a4 F0E7     		b	.L9
 278              	.L14:
 279 00a6 00BF     		.align	2
 280              	.L13:
 281 00a8 00380140 		.word	1073821696
 282 00ac 00000000 		.word	hdma_usart1_rx
 283 00b0 58000240 		.word	1073872984
 284              		.cfi_endproc
 285              	.LFE127:
 287              		.section	.text.HAL_UART_MspDeInit,"ax",%progbits
 288              		.align	1
 289              		.global	HAL_UART_MspDeInit
 290              		.syntax unified
 291              		.thumb
 292              		.thumb_func
 293              		.fpu fpv4-sp-d16
 295              	HAL_UART_MspDeInit:
 296              	.LVL11:
 297              	.LFB128:
 103:Core/Src/usart.c **** 
 104:Core/Src/usart.c **** void HAL_UART_MspDeInit(UART_HandleTypeDef* uartHandle)
 105:Core/Src/usart.c **** {
 298              		.loc 1 105 1 view -0
 299              		.cfi_startproc
 300              		@ args = 0, pretend = 0, frame = 0
 301              		@ frame_needed = 0, uses_anonymous_args = 0
 106:Core/Src/usart.c **** 
 107:Core/Src/usart.c ****   if(uartHandle->Instance==USART1)
 302              		.loc 1 107 3 view .LVU92
 303              		.loc 1 107 16 is_stmt 0 view .LVU93
ARM GAS  C:\Users\PIERRE~1\AppData\Local\Temp\cc95UATo.s 			page 9


 304 0000 0268     		ldr	r2, [r0]
 305              		.loc 1 107 5 view .LVU94
 306 0002 0C4B     		ldr	r3, .L22
 307 0004 9A42     		cmp	r2, r3
 308 0006 00D0     		beq	.L21
 309 0008 7047     		bx	lr
 310              	.L21:
 105:Core/Src/usart.c **** 
 311              		.loc 1 105 1 view .LVU95
 312 000a 10B5     		push	{r4, lr}
 313              	.LCFI5:
 314              		.cfi_def_cfa_offset 8
 315              		.cfi_offset 4, -8
 316              		.cfi_offset 14, -4
 317 000c 0446     		mov	r4, r0
 108:Core/Src/usart.c ****   {
 109:Core/Src/usart.c ****   /* USER CODE BEGIN USART1_MspDeInit 0 */
 110:Core/Src/usart.c **** 
 111:Core/Src/usart.c ****   /* USER CODE END USART1_MspDeInit 0 */
 112:Core/Src/usart.c ****     /* Peripheral clock disable */
 113:Core/Src/usart.c ****     __HAL_RCC_USART1_CLK_DISABLE();
 318              		.loc 1 113 5 is_stmt 1 view .LVU96
 319 000e 0A4A     		ldr	r2, .L22+4
 320 0010 9369     		ldr	r3, [r2, #24]
 321 0012 23F48043 		bic	r3, r3, #16384
 322 0016 9361     		str	r3, [r2, #24]
 114:Core/Src/usart.c **** 
 115:Core/Src/usart.c ****     /**USART1 GPIO Configuration
 116:Core/Src/usart.c ****     PA9     ------> USART1_TX
 117:Core/Src/usart.c ****     PA10     ------> USART1_RX
 118:Core/Src/usart.c ****     */
 119:Core/Src/usart.c ****     HAL_GPIO_DeInit(GPIOA, GPIO_PIN_9|GPIO_PIN_10);
 323              		.loc 1 119 5 view .LVU97
 324 0018 4FF4C061 		mov	r1, #1536
 325 001c 4FF09040 		mov	r0, #1207959552
 326              	.LVL12:
 327              		.loc 1 119 5 is_stmt 0 view .LVU98
 328 0020 FFF7FEFF 		bl	HAL_GPIO_DeInit
 329              	.LVL13:
 120:Core/Src/usart.c **** 
 121:Core/Src/usart.c ****     /* USART1 DMA DeInit */
 122:Core/Src/usart.c ****     HAL_DMA_DeInit(uartHandle->hdmarx);
 330              		.loc 1 122 5 is_stmt 1 view .LVU99
 331 0024 206F     		ldr	r0, [r4, #112]
 332 0026 FFF7FEFF 		bl	HAL_DMA_DeInit
 333              	.LVL14:
 123:Core/Src/usart.c **** 
 124:Core/Src/usart.c ****     /* USART1 interrupt Deinit */
 125:Core/Src/usart.c ****     HAL_NVIC_DisableIRQ(USART1_IRQn);
 334              		.loc 1 125 5 view .LVU100
 335 002a 2520     		movs	r0, #37
 336 002c FFF7FEFF 		bl	HAL_NVIC_DisableIRQ
 337              	.LVL15:
 126:Core/Src/usart.c ****   /* USER CODE BEGIN USART1_MspDeInit 1 */
 127:Core/Src/usart.c **** 
 128:Core/Src/usart.c ****   /* USER CODE END USART1_MspDeInit 1 */
 129:Core/Src/usart.c ****   }
ARM GAS  C:\Users\PIERRE~1\AppData\Local\Temp\cc95UATo.s 			page 10


 130:Core/Src/usart.c **** }
 338              		.loc 1 130 1 is_stmt 0 view .LVU101
 339 0030 10BD     		pop	{r4, pc}
 340              	.LVL16:
 341              	.L23:
 342              		.loc 1 130 1 view .LVU102
 343 0032 00BF     		.align	2
 344              	.L22:
 345 0034 00380140 		.word	1073821696
 346 0038 00100240 		.word	1073876992
 347              		.cfi_endproc
 348              	.LFE128:
 350              		.comm	hdma_usart1_rx,68,4
 351              		.comm	huart1,132,4
 352              		.text
 353              	.Letext0:
 354              		.file 2 "c:\\users\\pierre-anthony\\.vscode\\extensions\\buzzyelectronics.stm-helper-1.2.9\\armgcc
 355              		.file 3 "c:\\users\\pierre-anthony\\.vscode\\extensions\\buzzyelectronics.stm-helper-1.2.9\\armgcc
 356              		.file 4 "Drivers/CMSIS/Include/core_cm4.h"
 357              		.file 5 "Drivers/CMSIS/Device/ST/STM32F3xx/Include/system_stm32f3xx.h"
 358              		.file 6 "Drivers/CMSIS/Device/ST/STM32F3xx/Include/stm32f302x8.h"
 359              		.file 7 "Drivers/STM32F3xx_HAL_Driver/Inc/stm32f3xx_hal_def.h"
 360              		.file 8 "Drivers/STM32F3xx_HAL_Driver/Inc/stm32f3xx_hal_gpio.h"
 361              		.file 9 "Drivers/STM32F3xx_HAL_Driver/Inc/stm32f3xx_hal_dma.h"
 362              		.file 10 "Drivers/STM32F3xx_HAL_Driver/Inc/stm32f3xx_hal_uart.h"
 363              		.file 11 "Drivers/STM32F3xx_HAL_Driver/Inc/stm32f3xx_hal.h"
 364              		.file 12 "c:\\users\\pierre-anthony\\.vscode\\extensions\\buzzyelectronics.stm-helper-1.2.9\\armgc
 365              		.file 13 "c:\\users\\pierre-anthony\\.vscode\\extensions\\buzzyelectronics.stm-helper-1.2.9\\armgc
 366              		.file 14 "c:\\users\\pierre-anthony\\.vscode\\extensions\\buzzyelectronics.stm-helper-1.2.9\\armgc
 367              		.file 15 "c:\\users\\pierre-anthony\\.vscode\\extensions\\buzzyelectronics.stm-helper-1.2.9\\armgc
 368              		.file 16 "Core/Inc/usart.h"
 369              		.file 17 "Drivers/STM32F3xx_HAL_Driver/Inc/stm32f3xx_hal_cortex.h"
 370              		.file 18 "Core/Inc/main.h"
ARM GAS  C:\Users\PIERRE~1\AppData\Local\Temp\cc95UATo.s 			page 11

