ARM GAS  C:\Users\pierr\AppData\Local\Temp\ccKdR2x8.s 			page 1


   1              		.cpu cortex-m4
   2              		.eabi_attribute 27, 1
   3              		.eabi_attribute 28, 1
   4              		.eabi_attribute 20, 1
   5              		.eabi_attribute 21, 1
   6              		.eabi_attribute 23, 3
   7              		.eabi_attribute 24, 1
   8              		.eabi_attribute 25, 1
   9              		.eabi_attribute 26, 1
  10              		.eabi_attribute 30, 1
  11              		.eabi_attribute 34, 1
  12              		.eabi_attribute 18, 4
  13              		.file	"usbd_conf.c"
  14              		.text
  15              	.Ltext0:
  16              		.cfi_sections	.debug_frame
  17              		.section	.text.USBD_Get_USB_Status,"ax",%progbits
  18              		.align	1
  19              		.arch armv7e-m
  20              		.syntax unified
  21              		.thumb
  22              		.thumb_func
  23              		.fpu fpv4-sp-d16
  25              	USBD_Get_USB_Status:
  26              	.LVL0:
  27              	.LFB157:
  28              		.file 1 "USB_DEVICE/Target/usbd_conf.c"
   1:USB_DEVICE/Target/usbd_conf.c **** /* USER CODE BEGIN Header */
   2:USB_DEVICE/Target/usbd_conf.c **** /**
   3:USB_DEVICE/Target/usbd_conf.c ****   ******************************************************************************
   4:USB_DEVICE/Target/usbd_conf.c ****   * @file           : Target/usbd_conf.c
   5:USB_DEVICE/Target/usbd_conf.c ****   * @version        : v2.0_Cube
   6:USB_DEVICE/Target/usbd_conf.c ****   * @brief          : This file implements the board support package for the USB device library
   7:USB_DEVICE/Target/usbd_conf.c ****   ******************************************************************************
   8:USB_DEVICE/Target/usbd_conf.c ****   * @attention
   9:USB_DEVICE/Target/usbd_conf.c ****   *
  10:USB_DEVICE/Target/usbd_conf.c ****   * <h2><center>&copy; Copyright (c) 2021 STMicroelectronics.
  11:USB_DEVICE/Target/usbd_conf.c ****   * All rights reserved.</center></h2>
  12:USB_DEVICE/Target/usbd_conf.c ****   *
  13:USB_DEVICE/Target/usbd_conf.c ****   * This software component is licensed by ST under Ultimate Liberty license
  14:USB_DEVICE/Target/usbd_conf.c ****   * SLA0044, the "License"; You may not use this file except in compliance with
  15:USB_DEVICE/Target/usbd_conf.c ****   * the License. You may obtain a copy of the License at:
  16:USB_DEVICE/Target/usbd_conf.c ****   *                             www.st.com/SLA0044
  17:USB_DEVICE/Target/usbd_conf.c ****   *
  18:USB_DEVICE/Target/usbd_conf.c ****   ******************************************************************************
  19:USB_DEVICE/Target/usbd_conf.c ****   */
  20:USB_DEVICE/Target/usbd_conf.c **** /* USER CODE END Header */
  21:USB_DEVICE/Target/usbd_conf.c **** 
  22:USB_DEVICE/Target/usbd_conf.c **** /* Includes ------------------------------------------------------------------*/
  23:USB_DEVICE/Target/usbd_conf.c **** #include "stm32f3xx.h"
  24:USB_DEVICE/Target/usbd_conf.c **** #include "stm32f3xx_hal.h"
  25:USB_DEVICE/Target/usbd_conf.c **** #include "usbd_def.h"
  26:USB_DEVICE/Target/usbd_conf.c **** #include "usbd_core.h"
  27:USB_DEVICE/Target/usbd_conf.c **** #include "usbd_cdc.h"
  28:USB_DEVICE/Target/usbd_conf.c **** 
  29:USB_DEVICE/Target/usbd_conf.c **** /* USER CODE BEGIN Includes */
  30:USB_DEVICE/Target/usbd_conf.c **** 
ARM GAS  C:\Users\pierr\AppData\Local\Temp\ccKdR2x8.s 			page 2


  31:USB_DEVICE/Target/usbd_conf.c **** /* USER CODE END Includes */
  32:USB_DEVICE/Target/usbd_conf.c **** 
  33:USB_DEVICE/Target/usbd_conf.c **** /* Private typedef -----------------------------------------------------------*/
  34:USB_DEVICE/Target/usbd_conf.c **** /* Private define ------------------------------------------------------------*/
  35:USB_DEVICE/Target/usbd_conf.c **** /* Private macro -------------------------------------------------------------*/
  36:USB_DEVICE/Target/usbd_conf.c **** 
  37:USB_DEVICE/Target/usbd_conf.c **** /* USER CODE BEGIN PV */
  38:USB_DEVICE/Target/usbd_conf.c **** /* Private variables ---------------------------------------------------------*/
  39:USB_DEVICE/Target/usbd_conf.c **** 
  40:USB_DEVICE/Target/usbd_conf.c **** /* USER CODE END PV */
  41:USB_DEVICE/Target/usbd_conf.c **** 
  42:USB_DEVICE/Target/usbd_conf.c **** PCD_HandleTypeDef hpcd_USB_FS;
  43:USB_DEVICE/Target/usbd_conf.c **** void Error_Handler(void);
  44:USB_DEVICE/Target/usbd_conf.c **** 
  45:USB_DEVICE/Target/usbd_conf.c **** /* USER CODE BEGIN 0 */
  46:USB_DEVICE/Target/usbd_conf.c **** 
  47:USB_DEVICE/Target/usbd_conf.c **** /* USER CODE END 0 */
  48:USB_DEVICE/Target/usbd_conf.c **** 
  49:USB_DEVICE/Target/usbd_conf.c **** /* USER CODE BEGIN PFP */
  50:USB_DEVICE/Target/usbd_conf.c **** /* Private function prototypes -----------------------------------------------*/
  51:USB_DEVICE/Target/usbd_conf.c **** 
  52:USB_DEVICE/Target/usbd_conf.c **** /* USER CODE END PFP */
  53:USB_DEVICE/Target/usbd_conf.c **** 
  54:USB_DEVICE/Target/usbd_conf.c **** /* Private functions ---------------------------------------------------------*/
  55:USB_DEVICE/Target/usbd_conf.c **** static USBD_StatusTypeDef USBD_Get_USB_Status(HAL_StatusTypeDef hal_status);
  56:USB_DEVICE/Target/usbd_conf.c **** /* USER CODE BEGIN 1 */
  57:USB_DEVICE/Target/usbd_conf.c **** 
  58:USB_DEVICE/Target/usbd_conf.c **** /* USER CODE END 1 */
  59:USB_DEVICE/Target/usbd_conf.c **** #if (USE_HAL_PCD_REGISTER_CALLBACKS == 1U)
  60:USB_DEVICE/Target/usbd_conf.c **** static void PCDEx_SetConnectionState(PCD_HandleTypeDef *hpcd, uint8_t state);
  61:USB_DEVICE/Target/usbd_conf.c **** #else
  62:USB_DEVICE/Target/usbd_conf.c **** void HAL_PCDEx_SetConnectionState(PCD_HandleTypeDef *hpcd, uint8_t state);
  63:USB_DEVICE/Target/usbd_conf.c **** #endif /* USE_HAL_PCD_REGISTER_CALLBACKS */
  64:USB_DEVICE/Target/usbd_conf.c **** 
  65:USB_DEVICE/Target/usbd_conf.c **** /*******************************************************************************
  66:USB_DEVICE/Target/usbd_conf.c ****                        LL Driver Callbacks (PCD -> USB Device Library)
  67:USB_DEVICE/Target/usbd_conf.c **** *******************************************************************************/
  68:USB_DEVICE/Target/usbd_conf.c **** /* MSP Init */
  69:USB_DEVICE/Target/usbd_conf.c **** 
  70:USB_DEVICE/Target/usbd_conf.c **** void HAL_PCD_MspInit(PCD_HandleTypeDef* pcdHandle)
  71:USB_DEVICE/Target/usbd_conf.c **** {
  72:USB_DEVICE/Target/usbd_conf.c ****   if(pcdHandle->Instance==USB)
  73:USB_DEVICE/Target/usbd_conf.c ****   {
  74:USB_DEVICE/Target/usbd_conf.c ****   /* USER CODE BEGIN USB_MspInit 0 */
  75:USB_DEVICE/Target/usbd_conf.c **** 
  76:USB_DEVICE/Target/usbd_conf.c ****   /* USER CODE END USB_MspInit 0 */
  77:USB_DEVICE/Target/usbd_conf.c ****     /* Peripheral clock enable */
  78:USB_DEVICE/Target/usbd_conf.c ****     __HAL_RCC_USB_CLK_ENABLE();
  79:USB_DEVICE/Target/usbd_conf.c **** 
  80:USB_DEVICE/Target/usbd_conf.c ****     /* Peripheral interrupt init */
  81:USB_DEVICE/Target/usbd_conf.c ****     HAL_NVIC_SetPriority(USB_LP_CAN_RX0_IRQn, 0, 0);
  82:USB_DEVICE/Target/usbd_conf.c ****     HAL_NVIC_EnableIRQ(USB_LP_CAN_RX0_IRQn);
  83:USB_DEVICE/Target/usbd_conf.c ****   /* USER CODE BEGIN USB_MspInit 1 */
  84:USB_DEVICE/Target/usbd_conf.c **** 
  85:USB_DEVICE/Target/usbd_conf.c ****   /* USER CODE END USB_MspInit 1 */
  86:USB_DEVICE/Target/usbd_conf.c ****   }
  87:USB_DEVICE/Target/usbd_conf.c **** }
ARM GAS  C:\Users\pierr\AppData\Local\Temp\ccKdR2x8.s 			page 3


  88:USB_DEVICE/Target/usbd_conf.c **** 
  89:USB_DEVICE/Target/usbd_conf.c **** void HAL_PCD_MspDeInit(PCD_HandleTypeDef* pcdHandle)
  90:USB_DEVICE/Target/usbd_conf.c **** {
  91:USB_DEVICE/Target/usbd_conf.c ****   if(pcdHandle->Instance==USB)
  92:USB_DEVICE/Target/usbd_conf.c ****   {
  93:USB_DEVICE/Target/usbd_conf.c ****   /* USER CODE BEGIN USB_MspDeInit 0 */
  94:USB_DEVICE/Target/usbd_conf.c **** 
  95:USB_DEVICE/Target/usbd_conf.c ****   /* USER CODE END USB_MspDeInit 0 */
  96:USB_DEVICE/Target/usbd_conf.c ****     /* Peripheral clock disable */
  97:USB_DEVICE/Target/usbd_conf.c ****     __HAL_RCC_USB_CLK_DISABLE();
  98:USB_DEVICE/Target/usbd_conf.c **** 
  99:USB_DEVICE/Target/usbd_conf.c ****     /* Peripheral interrupt Deinit*/
 100:USB_DEVICE/Target/usbd_conf.c ****     HAL_NVIC_DisableIRQ(USB_LP_CAN_RX0_IRQn);
 101:USB_DEVICE/Target/usbd_conf.c **** 
 102:USB_DEVICE/Target/usbd_conf.c ****   /* USER CODE BEGIN USB_MspDeInit 1 */
 103:USB_DEVICE/Target/usbd_conf.c **** 
 104:USB_DEVICE/Target/usbd_conf.c ****   /* USER CODE END USB_MspDeInit 1 */
 105:USB_DEVICE/Target/usbd_conf.c ****   }
 106:USB_DEVICE/Target/usbd_conf.c **** }
 107:USB_DEVICE/Target/usbd_conf.c **** 
 108:USB_DEVICE/Target/usbd_conf.c **** /**
 109:USB_DEVICE/Target/usbd_conf.c ****   * @brief  Setup stage callback
 110:USB_DEVICE/Target/usbd_conf.c ****   * @param  hpcd: PCD handle
 111:USB_DEVICE/Target/usbd_conf.c ****   * @retval None
 112:USB_DEVICE/Target/usbd_conf.c ****   */
 113:USB_DEVICE/Target/usbd_conf.c **** #if (USE_HAL_PCD_REGISTER_CALLBACKS == 1U)
 114:USB_DEVICE/Target/usbd_conf.c **** static void PCD_SetupStageCallback(PCD_HandleTypeDef *hpcd)
 115:USB_DEVICE/Target/usbd_conf.c **** #else
 116:USB_DEVICE/Target/usbd_conf.c **** void HAL_PCD_SetupStageCallback(PCD_HandleTypeDef *hpcd)
 117:USB_DEVICE/Target/usbd_conf.c **** #endif /* USE_HAL_PCD_REGISTER_CALLBACKS */
 118:USB_DEVICE/Target/usbd_conf.c **** {
 119:USB_DEVICE/Target/usbd_conf.c ****   USBD_LL_SetupStage((USBD_HandleTypeDef*)hpcd->pData, (uint8_t *)hpcd->Setup);
 120:USB_DEVICE/Target/usbd_conf.c **** }
 121:USB_DEVICE/Target/usbd_conf.c **** 
 122:USB_DEVICE/Target/usbd_conf.c **** /**
 123:USB_DEVICE/Target/usbd_conf.c ****   * @brief  Data Out stage callback.
 124:USB_DEVICE/Target/usbd_conf.c ****   * @param  hpcd: PCD handle
 125:USB_DEVICE/Target/usbd_conf.c ****   * @param  epnum: Endpoint number
 126:USB_DEVICE/Target/usbd_conf.c ****   * @retval None
 127:USB_DEVICE/Target/usbd_conf.c ****   */
 128:USB_DEVICE/Target/usbd_conf.c **** #if (USE_HAL_PCD_REGISTER_CALLBACKS == 1U)
 129:USB_DEVICE/Target/usbd_conf.c **** static void PCD_DataOutStageCallback(PCD_HandleTypeDef *hpcd, uint8_t epnum)
 130:USB_DEVICE/Target/usbd_conf.c **** #else
 131:USB_DEVICE/Target/usbd_conf.c **** void HAL_PCD_DataOutStageCallback(PCD_HandleTypeDef *hpcd, uint8_t epnum)
 132:USB_DEVICE/Target/usbd_conf.c **** #endif /* USE_HAL_PCD_REGISTER_CALLBACKS */
 133:USB_DEVICE/Target/usbd_conf.c **** {
 134:USB_DEVICE/Target/usbd_conf.c ****   USBD_LL_DataOutStage((USBD_HandleTypeDef*)hpcd->pData, epnum, hpcd->OUT_ep[epnum].xfer_buff);
 135:USB_DEVICE/Target/usbd_conf.c **** }
 136:USB_DEVICE/Target/usbd_conf.c **** 
 137:USB_DEVICE/Target/usbd_conf.c **** /**
 138:USB_DEVICE/Target/usbd_conf.c ****   * @brief  Data In stage callback.
 139:USB_DEVICE/Target/usbd_conf.c ****   * @param  hpcd: PCD handle
 140:USB_DEVICE/Target/usbd_conf.c ****   * @param  epnum: Endpoint number
 141:USB_DEVICE/Target/usbd_conf.c ****   * @retval None
 142:USB_DEVICE/Target/usbd_conf.c ****   */
 143:USB_DEVICE/Target/usbd_conf.c **** #if (USE_HAL_PCD_REGISTER_CALLBACKS == 1U)
 144:USB_DEVICE/Target/usbd_conf.c **** static void PCD_DataInStageCallback(PCD_HandleTypeDef *hpcd, uint8_t epnum)
ARM GAS  C:\Users\pierr\AppData\Local\Temp\ccKdR2x8.s 			page 4


 145:USB_DEVICE/Target/usbd_conf.c **** #else
 146:USB_DEVICE/Target/usbd_conf.c **** void HAL_PCD_DataInStageCallback(PCD_HandleTypeDef *hpcd, uint8_t epnum)
 147:USB_DEVICE/Target/usbd_conf.c **** #endif /* USE_HAL_PCD_REGISTER_CALLBACKS */
 148:USB_DEVICE/Target/usbd_conf.c **** {
 149:USB_DEVICE/Target/usbd_conf.c ****   USBD_LL_DataInStage((USBD_HandleTypeDef*)hpcd->pData, epnum, hpcd->IN_ep[epnum].xfer_buff);
 150:USB_DEVICE/Target/usbd_conf.c **** }
 151:USB_DEVICE/Target/usbd_conf.c **** 
 152:USB_DEVICE/Target/usbd_conf.c **** /**
 153:USB_DEVICE/Target/usbd_conf.c ****   * @brief  SOF callback.
 154:USB_DEVICE/Target/usbd_conf.c ****   * @param  hpcd: PCD handle
 155:USB_DEVICE/Target/usbd_conf.c ****   * @retval None
 156:USB_DEVICE/Target/usbd_conf.c ****   */
 157:USB_DEVICE/Target/usbd_conf.c **** #if (USE_HAL_PCD_REGISTER_CALLBACKS == 1U)
 158:USB_DEVICE/Target/usbd_conf.c **** static void PCD_SOFCallback(PCD_HandleTypeDef *hpcd)
 159:USB_DEVICE/Target/usbd_conf.c **** #else
 160:USB_DEVICE/Target/usbd_conf.c **** void HAL_PCD_SOFCallback(PCD_HandleTypeDef *hpcd)
 161:USB_DEVICE/Target/usbd_conf.c **** #endif /* USE_HAL_PCD_REGISTER_CALLBACKS */
 162:USB_DEVICE/Target/usbd_conf.c **** {
 163:USB_DEVICE/Target/usbd_conf.c ****   USBD_LL_SOF((USBD_HandleTypeDef*)hpcd->pData);
 164:USB_DEVICE/Target/usbd_conf.c **** }
 165:USB_DEVICE/Target/usbd_conf.c **** 
 166:USB_DEVICE/Target/usbd_conf.c **** /**
 167:USB_DEVICE/Target/usbd_conf.c ****   * @brief  Reset callback.
 168:USB_DEVICE/Target/usbd_conf.c ****   * @param  hpcd: PCD handle
 169:USB_DEVICE/Target/usbd_conf.c ****   * @retval None
 170:USB_DEVICE/Target/usbd_conf.c ****   */
 171:USB_DEVICE/Target/usbd_conf.c **** #if (USE_HAL_PCD_REGISTER_CALLBACKS == 1U)
 172:USB_DEVICE/Target/usbd_conf.c **** static void PCD_ResetCallback(PCD_HandleTypeDef *hpcd)
 173:USB_DEVICE/Target/usbd_conf.c **** #else
 174:USB_DEVICE/Target/usbd_conf.c **** void HAL_PCD_ResetCallback(PCD_HandleTypeDef *hpcd)
 175:USB_DEVICE/Target/usbd_conf.c **** #endif /* USE_HAL_PCD_REGISTER_CALLBACKS */
 176:USB_DEVICE/Target/usbd_conf.c **** {
 177:USB_DEVICE/Target/usbd_conf.c ****   USBD_SpeedTypeDef speed = USBD_SPEED_FULL;
 178:USB_DEVICE/Target/usbd_conf.c **** 
 179:USB_DEVICE/Target/usbd_conf.c ****   if ( hpcd->Init.speed != PCD_SPEED_FULL)
 180:USB_DEVICE/Target/usbd_conf.c ****   {
 181:USB_DEVICE/Target/usbd_conf.c ****     Error_Handler();
 182:USB_DEVICE/Target/usbd_conf.c ****   }
 183:USB_DEVICE/Target/usbd_conf.c ****     /* Set Speed. */
 184:USB_DEVICE/Target/usbd_conf.c ****   USBD_LL_SetSpeed((USBD_HandleTypeDef*)hpcd->pData, speed);
 185:USB_DEVICE/Target/usbd_conf.c **** 
 186:USB_DEVICE/Target/usbd_conf.c ****   /* Reset Device. */
 187:USB_DEVICE/Target/usbd_conf.c ****   USBD_LL_Reset((USBD_HandleTypeDef*)hpcd->pData);
 188:USB_DEVICE/Target/usbd_conf.c **** }
 189:USB_DEVICE/Target/usbd_conf.c **** 
 190:USB_DEVICE/Target/usbd_conf.c **** /**
 191:USB_DEVICE/Target/usbd_conf.c ****   * @brief  Suspend callback.
 192:USB_DEVICE/Target/usbd_conf.c ****   * When Low power mode is enabled the debug cannot be used (IAR, Keil doesn't support it)
 193:USB_DEVICE/Target/usbd_conf.c ****   * @param  hpcd: PCD handle
 194:USB_DEVICE/Target/usbd_conf.c ****   * @retval None
 195:USB_DEVICE/Target/usbd_conf.c ****   */
 196:USB_DEVICE/Target/usbd_conf.c **** #if (USE_HAL_PCD_REGISTER_CALLBACKS == 1U)
 197:USB_DEVICE/Target/usbd_conf.c **** static void PCD_SuspendCallback(PCD_HandleTypeDef *hpcd)
 198:USB_DEVICE/Target/usbd_conf.c **** #else
 199:USB_DEVICE/Target/usbd_conf.c **** void HAL_PCD_SuspendCallback(PCD_HandleTypeDef *hpcd)
 200:USB_DEVICE/Target/usbd_conf.c **** #endif /* USE_HAL_PCD_REGISTER_CALLBACKS */
 201:USB_DEVICE/Target/usbd_conf.c **** {
ARM GAS  C:\Users\pierr\AppData\Local\Temp\ccKdR2x8.s 			page 5


 202:USB_DEVICE/Target/usbd_conf.c ****   /* Inform USB library that core enters in suspend Mode. */
 203:USB_DEVICE/Target/usbd_conf.c ****   USBD_LL_Suspend((USBD_HandleTypeDef*)hpcd->pData);
 204:USB_DEVICE/Target/usbd_conf.c ****   /* Enter in STOP mode. */
 205:USB_DEVICE/Target/usbd_conf.c ****   /* USER CODE BEGIN 2 */
 206:USB_DEVICE/Target/usbd_conf.c ****   if (hpcd->Init.low_power_enable)
 207:USB_DEVICE/Target/usbd_conf.c ****   {
 208:USB_DEVICE/Target/usbd_conf.c ****     /* Set SLEEPDEEP bit and SleepOnExit of Cortex System Control Register. */
 209:USB_DEVICE/Target/usbd_conf.c ****     SCB->SCR |= (uint32_t)((uint32_t)(SCB_SCR_SLEEPDEEP_Msk | SCB_SCR_SLEEPONEXIT_Msk));
 210:USB_DEVICE/Target/usbd_conf.c ****   }
 211:USB_DEVICE/Target/usbd_conf.c ****   /* USER CODE END 2 */
 212:USB_DEVICE/Target/usbd_conf.c **** }
 213:USB_DEVICE/Target/usbd_conf.c **** 
 214:USB_DEVICE/Target/usbd_conf.c **** /**
 215:USB_DEVICE/Target/usbd_conf.c ****   * @brief  Resume callback.
 216:USB_DEVICE/Target/usbd_conf.c ****   * When Low power mode is enabled the debug cannot be used (IAR, Keil doesn't support it)
 217:USB_DEVICE/Target/usbd_conf.c ****   * @param  hpcd: PCD handle
 218:USB_DEVICE/Target/usbd_conf.c ****   * @retval None
 219:USB_DEVICE/Target/usbd_conf.c ****   */
 220:USB_DEVICE/Target/usbd_conf.c **** #if (USE_HAL_PCD_REGISTER_CALLBACKS == 1U)
 221:USB_DEVICE/Target/usbd_conf.c **** static void PCD_ResumeCallback(PCD_HandleTypeDef *hpcd)
 222:USB_DEVICE/Target/usbd_conf.c **** #else
 223:USB_DEVICE/Target/usbd_conf.c **** void HAL_PCD_ResumeCallback(PCD_HandleTypeDef *hpcd)
 224:USB_DEVICE/Target/usbd_conf.c **** #endif /* USE_HAL_PCD_REGISTER_CALLBACKS */
 225:USB_DEVICE/Target/usbd_conf.c **** {
 226:USB_DEVICE/Target/usbd_conf.c ****   /* USER CODE BEGIN 3 */
 227:USB_DEVICE/Target/usbd_conf.c **** 
 228:USB_DEVICE/Target/usbd_conf.c ****   /* USER CODE END 3 */
 229:USB_DEVICE/Target/usbd_conf.c ****   USBD_LL_Resume((USBD_HandleTypeDef*)hpcd->pData);
 230:USB_DEVICE/Target/usbd_conf.c **** }
 231:USB_DEVICE/Target/usbd_conf.c **** 
 232:USB_DEVICE/Target/usbd_conf.c **** /**
 233:USB_DEVICE/Target/usbd_conf.c ****   * @brief  ISOOUTIncomplete callback.
 234:USB_DEVICE/Target/usbd_conf.c ****   * @param  hpcd: PCD handle
 235:USB_DEVICE/Target/usbd_conf.c ****   * @param  epnum: Endpoint number
 236:USB_DEVICE/Target/usbd_conf.c ****   * @retval None
 237:USB_DEVICE/Target/usbd_conf.c ****   */
 238:USB_DEVICE/Target/usbd_conf.c **** #if (USE_HAL_PCD_REGISTER_CALLBACKS == 1U)
 239:USB_DEVICE/Target/usbd_conf.c **** static void PCD_ISOOUTIncompleteCallback(PCD_HandleTypeDef *hpcd, uint8_t epnum)
 240:USB_DEVICE/Target/usbd_conf.c **** #else
 241:USB_DEVICE/Target/usbd_conf.c **** void HAL_PCD_ISOOUTIncompleteCallback(PCD_HandleTypeDef *hpcd, uint8_t epnum)
 242:USB_DEVICE/Target/usbd_conf.c **** #endif /* USE_HAL_PCD_REGISTER_CALLBACKS */
 243:USB_DEVICE/Target/usbd_conf.c **** {
 244:USB_DEVICE/Target/usbd_conf.c ****   USBD_LL_IsoOUTIncomplete((USBD_HandleTypeDef*)hpcd->pData, epnum);
 245:USB_DEVICE/Target/usbd_conf.c **** }
 246:USB_DEVICE/Target/usbd_conf.c **** 
 247:USB_DEVICE/Target/usbd_conf.c **** /**
 248:USB_DEVICE/Target/usbd_conf.c ****   * @brief  ISOINIncomplete callback.
 249:USB_DEVICE/Target/usbd_conf.c ****   * @param  hpcd: PCD handle
 250:USB_DEVICE/Target/usbd_conf.c ****   * @param  epnum: Endpoint number
 251:USB_DEVICE/Target/usbd_conf.c ****   * @retval None
 252:USB_DEVICE/Target/usbd_conf.c ****   */
 253:USB_DEVICE/Target/usbd_conf.c **** #if (USE_HAL_PCD_REGISTER_CALLBACKS == 1U)
 254:USB_DEVICE/Target/usbd_conf.c **** static void PCD_ISOINIncompleteCallback(PCD_HandleTypeDef *hpcd, uint8_t epnum)
 255:USB_DEVICE/Target/usbd_conf.c **** #else
 256:USB_DEVICE/Target/usbd_conf.c **** void HAL_PCD_ISOINIncompleteCallback(PCD_HandleTypeDef *hpcd, uint8_t epnum)
 257:USB_DEVICE/Target/usbd_conf.c **** #endif /* USE_HAL_PCD_REGISTER_CALLBACKS */
 258:USB_DEVICE/Target/usbd_conf.c **** {
ARM GAS  C:\Users\pierr\AppData\Local\Temp\ccKdR2x8.s 			page 6


 259:USB_DEVICE/Target/usbd_conf.c ****   USBD_LL_IsoINIncomplete((USBD_HandleTypeDef*)hpcd->pData, epnum);
 260:USB_DEVICE/Target/usbd_conf.c **** }
 261:USB_DEVICE/Target/usbd_conf.c **** 
 262:USB_DEVICE/Target/usbd_conf.c **** /**
 263:USB_DEVICE/Target/usbd_conf.c ****   * @brief  Connect callback.
 264:USB_DEVICE/Target/usbd_conf.c ****   * @param  hpcd: PCD handle
 265:USB_DEVICE/Target/usbd_conf.c ****   * @retval None
 266:USB_DEVICE/Target/usbd_conf.c ****   */
 267:USB_DEVICE/Target/usbd_conf.c **** #if (USE_HAL_PCD_REGISTER_CALLBACKS == 1U)
 268:USB_DEVICE/Target/usbd_conf.c **** static void PCD_ConnectCallback(PCD_HandleTypeDef *hpcd)
 269:USB_DEVICE/Target/usbd_conf.c **** #else
 270:USB_DEVICE/Target/usbd_conf.c **** void HAL_PCD_ConnectCallback(PCD_HandleTypeDef *hpcd)
 271:USB_DEVICE/Target/usbd_conf.c **** #endif /* USE_HAL_PCD_REGISTER_CALLBACKS */
 272:USB_DEVICE/Target/usbd_conf.c **** {
 273:USB_DEVICE/Target/usbd_conf.c ****   USBD_LL_DevConnected((USBD_HandleTypeDef*)hpcd->pData);
 274:USB_DEVICE/Target/usbd_conf.c **** }
 275:USB_DEVICE/Target/usbd_conf.c **** 
 276:USB_DEVICE/Target/usbd_conf.c **** /**
 277:USB_DEVICE/Target/usbd_conf.c ****   * @brief  Disconnect callback.
 278:USB_DEVICE/Target/usbd_conf.c ****   * @param  hpcd: PCD handle
 279:USB_DEVICE/Target/usbd_conf.c ****   * @retval None
 280:USB_DEVICE/Target/usbd_conf.c ****   */
 281:USB_DEVICE/Target/usbd_conf.c **** #if (USE_HAL_PCD_REGISTER_CALLBACKS == 1U)
 282:USB_DEVICE/Target/usbd_conf.c **** static void PCD_DisconnectCallback(PCD_HandleTypeDef *hpcd)
 283:USB_DEVICE/Target/usbd_conf.c **** #else
 284:USB_DEVICE/Target/usbd_conf.c **** void HAL_PCD_DisconnectCallback(PCD_HandleTypeDef *hpcd)
 285:USB_DEVICE/Target/usbd_conf.c **** #endif /* USE_HAL_PCD_REGISTER_CALLBACKS */
 286:USB_DEVICE/Target/usbd_conf.c **** {
 287:USB_DEVICE/Target/usbd_conf.c ****   USBD_LL_DevDisconnected((USBD_HandleTypeDef*)hpcd->pData);
 288:USB_DEVICE/Target/usbd_conf.c **** }
 289:USB_DEVICE/Target/usbd_conf.c **** 
 290:USB_DEVICE/Target/usbd_conf.c **** /*******************************************************************************
 291:USB_DEVICE/Target/usbd_conf.c ****                        LL Driver Interface (USB Device Library --> PCD)
 292:USB_DEVICE/Target/usbd_conf.c **** *******************************************************************************/
 293:USB_DEVICE/Target/usbd_conf.c **** 
 294:USB_DEVICE/Target/usbd_conf.c **** /**
 295:USB_DEVICE/Target/usbd_conf.c ****   * @brief  Initializes the low level portion of the device driver.
 296:USB_DEVICE/Target/usbd_conf.c ****   * @param  pdev: Device handle
 297:USB_DEVICE/Target/usbd_conf.c ****   * @retval USBD status
 298:USB_DEVICE/Target/usbd_conf.c ****   */
 299:USB_DEVICE/Target/usbd_conf.c **** USBD_StatusTypeDef USBD_LL_Init(USBD_HandleTypeDef *pdev)
 300:USB_DEVICE/Target/usbd_conf.c **** {
 301:USB_DEVICE/Target/usbd_conf.c ****   /* Init USB Ip. */
 302:USB_DEVICE/Target/usbd_conf.c ****   /* Link the driver to the stack. */
 303:USB_DEVICE/Target/usbd_conf.c ****   hpcd_USB_FS.pData = pdev;
 304:USB_DEVICE/Target/usbd_conf.c ****   pdev->pData = &hpcd_USB_FS;
 305:USB_DEVICE/Target/usbd_conf.c **** 
 306:USB_DEVICE/Target/usbd_conf.c ****   hpcd_USB_FS.Instance = USB;
 307:USB_DEVICE/Target/usbd_conf.c ****   hpcd_USB_FS.Init.dev_endpoints = 8;
 308:USB_DEVICE/Target/usbd_conf.c ****   hpcd_USB_FS.Init.speed = PCD_SPEED_FULL;
 309:USB_DEVICE/Target/usbd_conf.c ****   hpcd_USB_FS.Init.phy_itface = PCD_PHY_EMBEDDED;
 310:USB_DEVICE/Target/usbd_conf.c ****   hpcd_USB_FS.Init.low_power_enable = DISABLE;
 311:USB_DEVICE/Target/usbd_conf.c ****   hpcd_USB_FS.Init.battery_charging_enable = DISABLE;
 312:USB_DEVICE/Target/usbd_conf.c ****   if (HAL_PCD_Init(&hpcd_USB_FS) != HAL_OK)
 313:USB_DEVICE/Target/usbd_conf.c ****   {
 314:USB_DEVICE/Target/usbd_conf.c ****     Error_Handler( );
 315:USB_DEVICE/Target/usbd_conf.c ****   }
ARM GAS  C:\Users\pierr\AppData\Local\Temp\ccKdR2x8.s 			page 7


 316:USB_DEVICE/Target/usbd_conf.c **** 
 317:USB_DEVICE/Target/usbd_conf.c **** #if (USE_HAL_PCD_REGISTER_CALLBACKS == 1U)
 318:USB_DEVICE/Target/usbd_conf.c ****   /* Register USB PCD CallBacks */
 319:USB_DEVICE/Target/usbd_conf.c ****   HAL_PCD_RegisterCallback(&hpcd_USB_FS, HAL_PCD_SOF_CB_ID, PCD_SOFCallback);
 320:USB_DEVICE/Target/usbd_conf.c ****   HAL_PCD_RegisterCallback(&hpcd_USB_FS, HAL_PCD_SETUPSTAGE_CB_ID, PCD_SetupStageCallback);
 321:USB_DEVICE/Target/usbd_conf.c ****   HAL_PCD_RegisterCallback(&hpcd_USB_FS, HAL_PCD_RESET_CB_ID, PCD_ResetCallback);
 322:USB_DEVICE/Target/usbd_conf.c ****   HAL_PCD_RegisterCallback(&hpcd_USB_FS, HAL_PCD_SUSPEND_CB_ID, PCD_SuspendCallback);
 323:USB_DEVICE/Target/usbd_conf.c ****   HAL_PCD_RegisterCallback(&hpcd_USB_FS, HAL_PCD_RESUME_CB_ID, PCD_ResumeCallback);
 324:USB_DEVICE/Target/usbd_conf.c ****   HAL_PCD_RegisterCallback(&hpcd_USB_FS, HAL_PCD_CONNECT_CB_ID, PCD_ConnectCallback);
 325:USB_DEVICE/Target/usbd_conf.c ****   HAL_PCD_RegisterCallback(&hpcd_USB_FS, HAL_PCD_DISCONNECT_CB_ID, PCD_DisconnectCallback);
 326:USB_DEVICE/Target/usbd_conf.c **** 
 327:USB_DEVICE/Target/usbd_conf.c ****   HAL_PCD_RegisterDataOutStageCallback(&hpcd_USB_FS, PCD_DataOutStageCallback);
 328:USB_DEVICE/Target/usbd_conf.c ****   HAL_PCD_RegisterDataInStageCallback(&hpcd_USB_FS, PCD_DataInStageCallback);
 329:USB_DEVICE/Target/usbd_conf.c ****   HAL_PCD_RegisterIsoOutIncpltCallback(&hpcd_USB_FS, PCD_ISOOUTIncompleteCallback);
 330:USB_DEVICE/Target/usbd_conf.c ****   HAL_PCD_RegisterIsoInIncpltCallback(&hpcd_USB_FS, PCD_ISOINIncompleteCallback);
 331:USB_DEVICE/Target/usbd_conf.c **** #endif /* USE_HAL_PCD_REGISTER_CALLBACKS */
 332:USB_DEVICE/Target/usbd_conf.c ****   /* USER CODE BEGIN EndPoint_Configuration */
 333:USB_DEVICE/Target/usbd_conf.c ****   HAL_PCDEx_PMAConfig((PCD_HandleTypeDef*)pdev->pData , 0x00 , PCD_SNG_BUF, 0x18);
 334:USB_DEVICE/Target/usbd_conf.c ****   HAL_PCDEx_PMAConfig((PCD_HandleTypeDef*)pdev->pData , 0x80 , PCD_SNG_BUF, 0x58);
 335:USB_DEVICE/Target/usbd_conf.c ****   /* USER CODE END EndPoint_Configuration */
 336:USB_DEVICE/Target/usbd_conf.c ****   /* USER CODE BEGIN EndPoint_Configuration_CDC */
 337:USB_DEVICE/Target/usbd_conf.c ****   HAL_PCDEx_PMAConfig((PCD_HandleTypeDef*)pdev->pData , 0x81 , PCD_SNG_BUF, 0xC0);
 338:USB_DEVICE/Target/usbd_conf.c ****   HAL_PCDEx_PMAConfig((PCD_HandleTypeDef*)pdev->pData , 0x01 , PCD_SNG_BUF, 0x110);
 339:USB_DEVICE/Target/usbd_conf.c ****   HAL_PCDEx_PMAConfig((PCD_HandleTypeDef*)pdev->pData , 0x82 , PCD_SNG_BUF, 0x100);
 340:USB_DEVICE/Target/usbd_conf.c ****   /* USER CODE END EndPoint_Configuration_CDC */
 341:USB_DEVICE/Target/usbd_conf.c ****   return USBD_OK;
 342:USB_DEVICE/Target/usbd_conf.c **** }
 343:USB_DEVICE/Target/usbd_conf.c **** 
 344:USB_DEVICE/Target/usbd_conf.c **** /**
 345:USB_DEVICE/Target/usbd_conf.c ****   * @brief  De-Initializes the low level portion of the device driver.
 346:USB_DEVICE/Target/usbd_conf.c ****   * @param  pdev: Device handle
 347:USB_DEVICE/Target/usbd_conf.c ****   * @retval USBD status
 348:USB_DEVICE/Target/usbd_conf.c ****   */
 349:USB_DEVICE/Target/usbd_conf.c **** USBD_StatusTypeDef USBD_LL_DeInit(USBD_HandleTypeDef *pdev)
 350:USB_DEVICE/Target/usbd_conf.c **** {
 351:USB_DEVICE/Target/usbd_conf.c ****   HAL_StatusTypeDef hal_status = HAL_OK;
 352:USB_DEVICE/Target/usbd_conf.c ****   USBD_StatusTypeDef usb_status = USBD_OK;
 353:USB_DEVICE/Target/usbd_conf.c **** 
 354:USB_DEVICE/Target/usbd_conf.c ****   hal_status = HAL_PCD_DeInit(pdev->pData);
 355:USB_DEVICE/Target/usbd_conf.c **** 
 356:USB_DEVICE/Target/usbd_conf.c ****   usb_status =  USBD_Get_USB_Status(hal_status);
 357:USB_DEVICE/Target/usbd_conf.c **** 
 358:USB_DEVICE/Target/usbd_conf.c ****   return usb_status;
 359:USB_DEVICE/Target/usbd_conf.c **** }
 360:USB_DEVICE/Target/usbd_conf.c **** 
 361:USB_DEVICE/Target/usbd_conf.c **** /**
 362:USB_DEVICE/Target/usbd_conf.c ****   * @brief  Starts the low level portion of the device driver.
 363:USB_DEVICE/Target/usbd_conf.c ****   * @param  pdev: Device handle
 364:USB_DEVICE/Target/usbd_conf.c ****   * @retval USBD status
 365:USB_DEVICE/Target/usbd_conf.c ****   */
 366:USB_DEVICE/Target/usbd_conf.c **** USBD_StatusTypeDef USBD_LL_Start(USBD_HandleTypeDef *pdev)
 367:USB_DEVICE/Target/usbd_conf.c **** {
 368:USB_DEVICE/Target/usbd_conf.c ****   HAL_StatusTypeDef hal_status = HAL_OK;
 369:USB_DEVICE/Target/usbd_conf.c ****   USBD_StatusTypeDef usb_status = USBD_OK;
 370:USB_DEVICE/Target/usbd_conf.c **** 
 371:USB_DEVICE/Target/usbd_conf.c ****   hal_status = HAL_PCD_Start(pdev->pData);
 372:USB_DEVICE/Target/usbd_conf.c **** 
ARM GAS  C:\Users\pierr\AppData\Local\Temp\ccKdR2x8.s 			page 8


 373:USB_DEVICE/Target/usbd_conf.c ****   usb_status =  USBD_Get_USB_Status(hal_status);
 374:USB_DEVICE/Target/usbd_conf.c **** 
 375:USB_DEVICE/Target/usbd_conf.c ****   return usb_status;
 376:USB_DEVICE/Target/usbd_conf.c **** }
 377:USB_DEVICE/Target/usbd_conf.c **** 
 378:USB_DEVICE/Target/usbd_conf.c **** /**
 379:USB_DEVICE/Target/usbd_conf.c ****   * @brief  Stops the low level portion of the device driver.
 380:USB_DEVICE/Target/usbd_conf.c ****   * @param  pdev: Device handle
 381:USB_DEVICE/Target/usbd_conf.c ****   * @retval USBD status
 382:USB_DEVICE/Target/usbd_conf.c ****   */
 383:USB_DEVICE/Target/usbd_conf.c **** USBD_StatusTypeDef USBD_LL_Stop(USBD_HandleTypeDef *pdev)
 384:USB_DEVICE/Target/usbd_conf.c **** {
 385:USB_DEVICE/Target/usbd_conf.c ****   HAL_StatusTypeDef hal_status = HAL_OK;
 386:USB_DEVICE/Target/usbd_conf.c ****   USBD_StatusTypeDef usb_status = USBD_OK;
 387:USB_DEVICE/Target/usbd_conf.c **** 
 388:USB_DEVICE/Target/usbd_conf.c ****   hal_status = HAL_PCD_Stop(pdev->pData);
 389:USB_DEVICE/Target/usbd_conf.c **** 
 390:USB_DEVICE/Target/usbd_conf.c ****   usb_status =  USBD_Get_USB_Status(hal_status);
 391:USB_DEVICE/Target/usbd_conf.c **** 
 392:USB_DEVICE/Target/usbd_conf.c ****   return usb_status;
 393:USB_DEVICE/Target/usbd_conf.c **** }
 394:USB_DEVICE/Target/usbd_conf.c **** 
 395:USB_DEVICE/Target/usbd_conf.c **** /**
 396:USB_DEVICE/Target/usbd_conf.c ****   * @brief  Opens an endpoint of the low level driver.
 397:USB_DEVICE/Target/usbd_conf.c ****   * @param  pdev: Device handle
 398:USB_DEVICE/Target/usbd_conf.c ****   * @param  ep_addr: Endpoint number
 399:USB_DEVICE/Target/usbd_conf.c ****   * @param  ep_type: Endpoint type
 400:USB_DEVICE/Target/usbd_conf.c ****   * @param  ep_mps: Endpoint max packet size
 401:USB_DEVICE/Target/usbd_conf.c ****   * @retval USBD status
 402:USB_DEVICE/Target/usbd_conf.c ****   */
 403:USB_DEVICE/Target/usbd_conf.c **** USBD_StatusTypeDef USBD_LL_OpenEP(USBD_HandleTypeDef *pdev, uint8_t ep_addr, uint8_t ep_type, uint1
 404:USB_DEVICE/Target/usbd_conf.c **** {
 405:USB_DEVICE/Target/usbd_conf.c ****   HAL_StatusTypeDef hal_status = HAL_OK;
 406:USB_DEVICE/Target/usbd_conf.c ****   USBD_StatusTypeDef usb_status = USBD_OK;
 407:USB_DEVICE/Target/usbd_conf.c **** 
 408:USB_DEVICE/Target/usbd_conf.c ****   hal_status = HAL_PCD_EP_Open(pdev->pData, ep_addr, ep_mps, ep_type);
 409:USB_DEVICE/Target/usbd_conf.c **** 
 410:USB_DEVICE/Target/usbd_conf.c ****   usb_status =  USBD_Get_USB_Status(hal_status);
 411:USB_DEVICE/Target/usbd_conf.c **** 
 412:USB_DEVICE/Target/usbd_conf.c ****   return usb_status;
 413:USB_DEVICE/Target/usbd_conf.c **** }
 414:USB_DEVICE/Target/usbd_conf.c **** 
 415:USB_DEVICE/Target/usbd_conf.c **** /**
 416:USB_DEVICE/Target/usbd_conf.c ****   * @brief  Closes an endpoint of the low level driver.
 417:USB_DEVICE/Target/usbd_conf.c ****   * @param  pdev: Device handle
 418:USB_DEVICE/Target/usbd_conf.c ****   * @param  ep_addr: Endpoint number
 419:USB_DEVICE/Target/usbd_conf.c ****   * @retval USBD status
 420:USB_DEVICE/Target/usbd_conf.c ****   */
 421:USB_DEVICE/Target/usbd_conf.c **** USBD_StatusTypeDef USBD_LL_CloseEP(USBD_HandleTypeDef *pdev, uint8_t ep_addr)
 422:USB_DEVICE/Target/usbd_conf.c **** {
 423:USB_DEVICE/Target/usbd_conf.c ****   HAL_StatusTypeDef hal_status = HAL_OK;
 424:USB_DEVICE/Target/usbd_conf.c ****   USBD_StatusTypeDef usb_status = USBD_OK;
 425:USB_DEVICE/Target/usbd_conf.c **** 
 426:USB_DEVICE/Target/usbd_conf.c ****   hal_status = HAL_PCD_EP_Close(pdev->pData, ep_addr);
 427:USB_DEVICE/Target/usbd_conf.c **** 
 428:USB_DEVICE/Target/usbd_conf.c ****   usb_status =  USBD_Get_USB_Status(hal_status);
 429:USB_DEVICE/Target/usbd_conf.c **** 
ARM GAS  C:\Users\pierr\AppData\Local\Temp\ccKdR2x8.s 			page 9


 430:USB_DEVICE/Target/usbd_conf.c ****   return usb_status;
 431:USB_DEVICE/Target/usbd_conf.c **** }
 432:USB_DEVICE/Target/usbd_conf.c **** 
 433:USB_DEVICE/Target/usbd_conf.c **** /**
 434:USB_DEVICE/Target/usbd_conf.c ****   * @brief  Flushes an endpoint of the Low Level Driver.
 435:USB_DEVICE/Target/usbd_conf.c ****   * @param  pdev: Device handle
 436:USB_DEVICE/Target/usbd_conf.c ****   * @param  ep_addr: Endpoint number
 437:USB_DEVICE/Target/usbd_conf.c ****   * @retval USBD status
 438:USB_DEVICE/Target/usbd_conf.c ****   */
 439:USB_DEVICE/Target/usbd_conf.c **** USBD_StatusTypeDef USBD_LL_FlushEP(USBD_HandleTypeDef *pdev, uint8_t ep_addr)
 440:USB_DEVICE/Target/usbd_conf.c **** {
 441:USB_DEVICE/Target/usbd_conf.c ****   HAL_StatusTypeDef hal_status = HAL_OK;
 442:USB_DEVICE/Target/usbd_conf.c ****   USBD_StatusTypeDef usb_status = USBD_OK;
 443:USB_DEVICE/Target/usbd_conf.c **** 
 444:USB_DEVICE/Target/usbd_conf.c ****   hal_status = HAL_PCD_EP_Flush(pdev->pData, ep_addr);
 445:USB_DEVICE/Target/usbd_conf.c **** 
 446:USB_DEVICE/Target/usbd_conf.c ****   usb_status =  USBD_Get_USB_Status(hal_status);
 447:USB_DEVICE/Target/usbd_conf.c **** 
 448:USB_DEVICE/Target/usbd_conf.c ****   return usb_status;
 449:USB_DEVICE/Target/usbd_conf.c **** }
 450:USB_DEVICE/Target/usbd_conf.c **** 
 451:USB_DEVICE/Target/usbd_conf.c **** /**
 452:USB_DEVICE/Target/usbd_conf.c ****   * @brief  Sets a Stall condition on an endpoint of the Low Level Driver.
 453:USB_DEVICE/Target/usbd_conf.c ****   * @param  pdev: Device handle
 454:USB_DEVICE/Target/usbd_conf.c ****   * @param  ep_addr: Endpoint number
 455:USB_DEVICE/Target/usbd_conf.c ****   * @retval USBD status
 456:USB_DEVICE/Target/usbd_conf.c ****   */
 457:USB_DEVICE/Target/usbd_conf.c **** USBD_StatusTypeDef USBD_LL_StallEP(USBD_HandleTypeDef *pdev, uint8_t ep_addr)
 458:USB_DEVICE/Target/usbd_conf.c **** {
 459:USB_DEVICE/Target/usbd_conf.c ****   HAL_StatusTypeDef hal_status = HAL_OK;
 460:USB_DEVICE/Target/usbd_conf.c ****   USBD_StatusTypeDef usb_status = USBD_OK;
 461:USB_DEVICE/Target/usbd_conf.c **** 
 462:USB_DEVICE/Target/usbd_conf.c ****   hal_status = HAL_PCD_EP_SetStall(pdev->pData, ep_addr);
 463:USB_DEVICE/Target/usbd_conf.c **** 
 464:USB_DEVICE/Target/usbd_conf.c ****   usb_status =  USBD_Get_USB_Status(hal_status);
 465:USB_DEVICE/Target/usbd_conf.c **** 
 466:USB_DEVICE/Target/usbd_conf.c ****   return usb_status;
 467:USB_DEVICE/Target/usbd_conf.c **** }
 468:USB_DEVICE/Target/usbd_conf.c **** 
 469:USB_DEVICE/Target/usbd_conf.c **** /**
 470:USB_DEVICE/Target/usbd_conf.c ****   * @brief  Clears a Stall condition on an endpoint of the Low Level Driver.
 471:USB_DEVICE/Target/usbd_conf.c ****   * @param  pdev: Device handle
 472:USB_DEVICE/Target/usbd_conf.c ****   * @param  ep_addr: Endpoint number
 473:USB_DEVICE/Target/usbd_conf.c ****   * @retval USBD status
 474:USB_DEVICE/Target/usbd_conf.c ****   */
 475:USB_DEVICE/Target/usbd_conf.c **** USBD_StatusTypeDef USBD_LL_ClearStallEP(USBD_HandleTypeDef *pdev, uint8_t ep_addr)
 476:USB_DEVICE/Target/usbd_conf.c **** {
 477:USB_DEVICE/Target/usbd_conf.c ****   HAL_StatusTypeDef hal_status = HAL_OK;
 478:USB_DEVICE/Target/usbd_conf.c ****   USBD_StatusTypeDef usb_status = USBD_OK;
 479:USB_DEVICE/Target/usbd_conf.c **** 
 480:USB_DEVICE/Target/usbd_conf.c ****   hal_status = HAL_PCD_EP_ClrStall(pdev->pData, ep_addr);
 481:USB_DEVICE/Target/usbd_conf.c **** 
 482:USB_DEVICE/Target/usbd_conf.c ****   usb_status =  USBD_Get_USB_Status(hal_status);
 483:USB_DEVICE/Target/usbd_conf.c **** 
 484:USB_DEVICE/Target/usbd_conf.c ****   return usb_status;
 485:USB_DEVICE/Target/usbd_conf.c **** }
 486:USB_DEVICE/Target/usbd_conf.c **** 
ARM GAS  C:\Users\pierr\AppData\Local\Temp\ccKdR2x8.s 			page 10


 487:USB_DEVICE/Target/usbd_conf.c **** /**
 488:USB_DEVICE/Target/usbd_conf.c ****   * @brief  Returns Stall condition.
 489:USB_DEVICE/Target/usbd_conf.c ****   * @param  pdev: Device handle
 490:USB_DEVICE/Target/usbd_conf.c ****   * @param  ep_addr: Endpoint number
 491:USB_DEVICE/Target/usbd_conf.c ****   * @retval Stall (1: Yes, 0: No)
 492:USB_DEVICE/Target/usbd_conf.c ****   */
 493:USB_DEVICE/Target/usbd_conf.c **** uint8_t USBD_LL_IsStallEP(USBD_HandleTypeDef *pdev, uint8_t ep_addr)
 494:USB_DEVICE/Target/usbd_conf.c **** {
 495:USB_DEVICE/Target/usbd_conf.c ****   PCD_HandleTypeDef *hpcd = (PCD_HandleTypeDef*) pdev->pData;
 496:USB_DEVICE/Target/usbd_conf.c **** 
 497:USB_DEVICE/Target/usbd_conf.c ****   if((ep_addr & 0x80) == 0x80)
 498:USB_DEVICE/Target/usbd_conf.c ****   {
 499:USB_DEVICE/Target/usbd_conf.c ****     return hpcd->IN_ep[ep_addr & 0x7F].is_stall;
 500:USB_DEVICE/Target/usbd_conf.c ****   }
 501:USB_DEVICE/Target/usbd_conf.c ****   else
 502:USB_DEVICE/Target/usbd_conf.c ****   {
 503:USB_DEVICE/Target/usbd_conf.c ****     return hpcd->OUT_ep[ep_addr & 0x7F].is_stall;
 504:USB_DEVICE/Target/usbd_conf.c ****   }
 505:USB_DEVICE/Target/usbd_conf.c **** }
 506:USB_DEVICE/Target/usbd_conf.c **** 
 507:USB_DEVICE/Target/usbd_conf.c **** /**
 508:USB_DEVICE/Target/usbd_conf.c ****   * @brief  Assigns a USB address to the device.
 509:USB_DEVICE/Target/usbd_conf.c ****   * @param  pdev: Device handle
 510:USB_DEVICE/Target/usbd_conf.c ****   * @param  dev_addr: Device address
 511:USB_DEVICE/Target/usbd_conf.c ****   * @retval USBD status
 512:USB_DEVICE/Target/usbd_conf.c ****   */
 513:USB_DEVICE/Target/usbd_conf.c **** USBD_StatusTypeDef USBD_LL_SetUSBAddress(USBD_HandleTypeDef *pdev, uint8_t dev_addr)
 514:USB_DEVICE/Target/usbd_conf.c **** {
 515:USB_DEVICE/Target/usbd_conf.c ****   HAL_StatusTypeDef hal_status = HAL_OK;
 516:USB_DEVICE/Target/usbd_conf.c ****   USBD_StatusTypeDef usb_status = USBD_OK;
 517:USB_DEVICE/Target/usbd_conf.c **** 
 518:USB_DEVICE/Target/usbd_conf.c ****   hal_status = HAL_PCD_SetAddress(pdev->pData, dev_addr);
 519:USB_DEVICE/Target/usbd_conf.c **** 
 520:USB_DEVICE/Target/usbd_conf.c ****   usb_status =  USBD_Get_USB_Status(hal_status);
 521:USB_DEVICE/Target/usbd_conf.c **** 
 522:USB_DEVICE/Target/usbd_conf.c ****   return usb_status;
 523:USB_DEVICE/Target/usbd_conf.c **** }
 524:USB_DEVICE/Target/usbd_conf.c **** 
 525:USB_DEVICE/Target/usbd_conf.c **** /**
 526:USB_DEVICE/Target/usbd_conf.c ****   * @brief  Transmits data over an endpoint.
 527:USB_DEVICE/Target/usbd_conf.c ****   * @param  pdev: Device handle
 528:USB_DEVICE/Target/usbd_conf.c ****   * @param  ep_addr: Endpoint number
 529:USB_DEVICE/Target/usbd_conf.c ****   * @param  pbuf: Pointer to data to be sent
 530:USB_DEVICE/Target/usbd_conf.c ****   * @param  size: Data size
 531:USB_DEVICE/Target/usbd_conf.c ****   * @retval USBD status
 532:USB_DEVICE/Target/usbd_conf.c ****   */
 533:USB_DEVICE/Target/usbd_conf.c **** USBD_StatusTypeDef USBD_LL_Transmit(USBD_HandleTypeDef *pdev, uint8_t ep_addr, uint8_t *pbuf, uint1
 534:USB_DEVICE/Target/usbd_conf.c **** {
 535:USB_DEVICE/Target/usbd_conf.c ****   HAL_StatusTypeDef hal_status = HAL_OK;
 536:USB_DEVICE/Target/usbd_conf.c ****   USBD_StatusTypeDef usb_status = USBD_OK;
 537:USB_DEVICE/Target/usbd_conf.c **** 
 538:USB_DEVICE/Target/usbd_conf.c ****   hal_status = HAL_PCD_EP_Transmit(pdev->pData, ep_addr, pbuf, size);
 539:USB_DEVICE/Target/usbd_conf.c **** 
 540:USB_DEVICE/Target/usbd_conf.c ****   usb_status =  USBD_Get_USB_Status(hal_status);
 541:USB_DEVICE/Target/usbd_conf.c **** 
 542:USB_DEVICE/Target/usbd_conf.c ****   return usb_status;
 543:USB_DEVICE/Target/usbd_conf.c **** }
ARM GAS  C:\Users\pierr\AppData\Local\Temp\ccKdR2x8.s 			page 11


 544:USB_DEVICE/Target/usbd_conf.c **** 
 545:USB_DEVICE/Target/usbd_conf.c **** /**
 546:USB_DEVICE/Target/usbd_conf.c ****   * @brief  Prepares an endpoint for reception.
 547:USB_DEVICE/Target/usbd_conf.c ****   * @param  pdev: Device handle
 548:USB_DEVICE/Target/usbd_conf.c ****   * @param  ep_addr: Endpoint number
 549:USB_DEVICE/Target/usbd_conf.c ****   * @param  pbuf: Pointer to data to be received
 550:USB_DEVICE/Target/usbd_conf.c ****   * @param  size: Data size
 551:USB_DEVICE/Target/usbd_conf.c ****   * @retval USBD status
 552:USB_DEVICE/Target/usbd_conf.c ****   */
 553:USB_DEVICE/Target/usbd_conf.c **** USBD_StatusTypeDef USBD_LL_PrepareReceive(USBD_HandleTypeDef *pdev, uint8_t ep_addr, uint8_t *pbuf,
 554:USB_DEVICE/Target/usbd_conf.c **** {
 555:USB_DEVICE/Target/usbd_conf.c ****   HAL_StatusTypeDef hal_status = HAL_OK;
 556:USB_DEVICE/Target/usbd_conf.c ****   USBD_StatusTypeDef usb_status = USBD_OK;
 557:USB_DEVICE/Target/usbd_conf.c **** 
 558:USB_DEVICE/Target/usbd_conf.c ****   hal_status = HAL_PCD_EP_Receive(pdev->pData, ep_addr, pbuf, size);
 559:USB_DEVICE/Target/usbd_conf.c **** 
 560:USB_DEVICE/Target/usbd_conf.c ****   usb_status =  USBD_Get_USB_Status(hal_status);
 561:USB_DEVICE/Target/usbd_conf.c **** 
 562:USB_DEVICE/Target/usbd_conf.c ****   return usb_status;
 563:USB_DEVICE/Target/usbd_conf.c **** }
 564:USB_DEVICE/Target/usbd_conf.c **** 
 565:USB_DEVICE/Target/usbd_conf.c **** /**
 566:USB_DEVICE/Target/usbd_conf.c ****   * @brief  Returns the last transfered packet size.
 567:USB_DEVICE/Target/usbd_conf.c ****   * @param  pdev: Device handle
 568:USB_DEVICE/Target/usbd_conf.c ****   * @param  ep_addr: Endpoint number
 569:USB_DEVICE/Target/usbd_conf.c ****   * @retval Recived Data Size
 570:USB_DEVICE/Target/usbd_conf.c ****   */
 571:USB_DEVICE/Target/usbd_conf.c **** uint32_t USBD_LL_GetRxDataSize(USBD_HandleTypeDef *pdev, uint8_t ep_addr)
 572:USB_DEVICE/Target/usbd_conf.c **** {
 573:USB_DEVICE/Target/usbd_conf.c ****   return HAL_PCD_EP_GetRxCount((PCD_HandleTypeDef*) pdev->pData, ep_addr);
 574:USB_DEVICE/Target/usbd_conf.c **** }
 575:USB_DEVICE/Target/usbd_conf.c **** 
 576:USB_DEVICE/Target/usbd_conf.c **** /**
 577:USB_DEVICE/Target/usbd_conf.c ****   * @brief  Delays routine for the USB device library.
 578:USB_DEVICE/Target/usbd_conf.c ****   * @param  Delay: Delay in ms
 579:USB_DEVICE/Target/usbd_conf.c ****   * @retval None
 580:USB_DEVICE/Target/usbd_conf.c ****   */
 581:USB_DEVICE/Target/usbd_conf.c **** void USBD_LL_Delay(uint32_t Delay)
 582:USB_DEVICE/Target/usbd_conf.c **** {
 583:USB_DEVICE/Target/usbd_conf.c ****   HAL_Delay(Delay);
 584:USB_DEVICE/Target/usbd_conf.c **** }
 585:USB_DEVICE/Target/usbd_conf.c **** 
 586:USB_DEVICE/Target/usbd_conf.c **** /**
 587:USB_DEVICE/Target/usbd_conf.c ****   * @brief  Static single allocation.
 588:USB_DEVICE/Target/usbd_conf.c ****   * @param  size: Size of allocated memory
 589:USB_DEVICE/Target/usbd_conf.c ****   * @retval None
 590:USB_DEVICE/Target/usbd_conf.c ****   */
 591:USB_DEVICE/Target/usbd_conf.c **** void *USBD_static_malloc(uint32_t size)
 592:USB_DEVICE/Target/usbd_conf.c **** {
 593:USB_DEVICE/Target/usbd_conf.c ****   static uint32_t mem[(sizeof(USBD_CDC_HandleTypeDef)/4)+1];/* On 32-bit boundary */
 594:USB_DEVICE/Target/usbd_conf.c ****   return mem;
 595:USB_DEVICE/Target/usbd_conf.c **** }
 596:USB_DEVICE/Target/usbd_conf.c **** 
 597:USB_DEVICE/Target/usbd_conf.c **** /**
 598:USB_DEVICE/Target/usbd_conf.c ****   * @brief  Dummy memory free
 599:USB_DEVICE/Target/usbd_conf.c ****   * @param  p: Pointer to allocated  memory address
 600:USB_DEVICE/Target/usbd_conf.c ****   * @retval None
ARM GAS  C:\Users\pierr\AppData\Local\Temp\ccKdR2x8.s 			page 12


 601:USB_DEVICE/Target/usbd_conf.c ****   */
 602:USB_DEVICE/Target/usbd_conf.c **** void USBD_static_free(void *p)
 603:USB_DEVICE/Target/usbd_conf.c **** {
 604:USB_DEVICE/Target/usbd_conf.c **** 
 605:USB_DEVICE/Target/usbd_conf.c **** }
 606:USB_DEVICE/Target/usbd_conf.c **** 
 607:USB_DEVICE/Target/usbd_conf.c **** /**
 608:USB_DEVICE/Target/usbd_conf.c ****   * @brief Software device connection
 609:USB_DEVICE/Target/usbd_conf.c ****   * @param hpcd: PCD handle
 610:USB_DEVICE/Target/usbd_conf.c ****   * @param state: Connection state (0: disconnected / 1: connected)
 611:USB_DEVICE/Target/usbd_conf.c ****   * @retval None
 612:USB_DEVICE/Target/usbd_conf.c ****   */
 613:USB_DEVICE/Target/usbd_conf.c **** #if (USE_HAL_PCD_REGISTER_CALLBACKS == 1U)
 614:USB_DEVICE/Target/usbd_conf.c **** void PCDEx_SetConnectionState(PCD_HandleTypeDef *hpcd, uint8_t state)
 615:USB_DEVICE/Target/usbd_conf.c **** #else
 616:USB_DEVICE/Target/usbd_conf.c **** void HAL_PCDEx_SetConnectionState(PCD_HandleTypeDef *hpcd, uint8_t state)
 617:USB_DEVICE/Target/usbd_conf.c **** #endif /* USE_HAL_PCD_REGISTER_CALLBACKS */
 618:USB_DEVICE/Target/usbd_conf.c **** {
 619:USB_DEVICE/Target/usbd_conf.c ****   /* USER CODE BEGIN 6 */
 620:USB_DEVICE/Target/usbd_conf.c ****   if (state == 1)
 621:USB_DEVICE/Target/usbd_conf.c ****   {
 622:USB_DEVICE/Target/usbd_conf.c ****     /* Configure Low connection state. */
 623:USB_DEVICE/Target/usbd_conf.c **** 
 624:USB_DEVICE/Target/usbd_conf.c ****   }
 625:USB_DEVICE/Target/usbd_conf.c ****   else
 626:USB_DEVICE/Target/usbd_conf.c ****   {
 627:USB_DEVICE/Target/usbd_conf.c ****     /* Configure High connection state. */
 628:USB_DEVICE/Target/usbd_conf.c **** 
 629:USB_DEVICE/Target/usbd_conf.c ****   }
 630:USB_DEVICE/Target/usbd_conf.c ****   /* USER CODE END 6 */
 631:USB_DEVICE/Target/usbd_conf.c **** }
 632:USB_DEVICE/Target/usbd_conf.c **** 
 633:USB_DEVICE/Target/usbd_conf.c **** /**
 634:USB_DEVICE/Target/usbd_conf.c ****   * @brief  Retuns the USB status depending on the HAL status:
 635:USB_DEVICE/Target/usbd_conf.c ****   * @param  hal_status: HAL status
 636:USB_DEVICE/Target/usbd_conf.c ****   * @retval USB status
 637:USB_DEVICE/Target/usbd_conf.c ****   */
 638:USB_DEVICE/Target/usbd_conf.c **** USBD_StatusTypeDef USBD_Get_USB_Status(HAL_StatusTypeDef hal_status)
 639:USB_DEVICE/Target/usbd_conf.c **** {
  29              		.loc 1 639 1 view -0
  30              		.cfi_startproc
  31              		@ args = 0, pretend = 0, frame = 0
  32              		@ frame_needed = 0, uses_anonymous_args = 0
  33              		@ link register save eliminated.
 640:USB_DEVICE/Target/usbd_conf.c ****   USBD_StatusTypeDef usb_status = USBD_OK;
  34              		.loc 1 640 3 view .LVU1
 641:USB_DEVICE/Target/usbd_conf.c **** 
 642:USB_DEVICE/Target/usbd_conf.c ****   switch (hal_status)
  35              		.loc 1 642 3 view .LVU2
  36 0000 0228     		cmp	r0, #2
  37 0002 05D8     		bhi	.L6
  38 0004 DFE800F0 		tbb	[pc, r0]
  39              	.L4:
  40 0008 05       		.byte	(.L2-.L4)/2
  41 0009 04       		.byte	(.L6-.L4)/2
  42 000a 02       		.byte	(.L3-.L4)/2
  43 000b 00       		.p2align 1
ARM GAS  C:\Users\pierr\AppData\Local\Temp\ccKdR2x8.s 			page 13


  44              	.L3:
 643:USB_DEVICE/Target/usbd_conf.c ****   {
 644:USB_DEVICE/Target/usbd_conf.c ****     case HAL_OK :
 645:USB_DEVICE/Target/usbd_conf.c ****       usb_status = USBD_OK;
 646:USB_DEVICE/Target/usbd_conf.c ****     break;
 647:USB_DEVICE/Target/usbd_conf.c ****     case HAL_ERROR :
 648:USB_DEVICE/Target/usbd_conf.c ****       usb_status = USBD_FAIL;
 649:USB_DEVICE/Target/usbd_conf.c ****     break;
 650:USB_DEVICE/Target/usbd_conf.c ****     case HAL_BUSY :
 651:USB_DEVICE/Target/usbd_conf.c ****       usb_status = USBD_BUSY;
  45              		.loc 1 651 7 view .LVU3
  46              	.LVL1:
 652:USB_DEVICE/Target/usbd_conf.c ****     break;
  47              		.loc 1 652 5 view .LVU4
 651:USB_DEVICE/Target/usbd_conf.c ****     break;
  48              		.loc 1 651 18 is_stmt 0 view .LVU5
  49 000c 0120     		movs	r0, #1
  50              	.LVL2:
  51              		.loc 1 652 5 view .LVU6
  52 000e 7047     		bx	lr
  53              	.LVL3:
  54              	.L6:
 648:USB_DEVICE/Target/usbd_conf.c ****     break;
  55              		.loc 1 648 18 view .LVU7
  56 0010 0220     		movs	r0, #2
  57              	.LVL4:
  58              	.L2:
 653:USB_DEVICE/Target/usbd_conf.c ****     case HAL_TIMEOUT :
 654:USB_DEVICE/Target/usbd_conf.c ****       usb_status = USBD_FAIL;
 655:USB_DEVICE/Target/usbd_conf.c ****     break;
 656:USB_DEVICE/Target/usbd_conf.c ****     default :
 657:USB_DEVICE/Target/usbd_conf.c ****       usb_status = USBD_FAIL;
 658:USB_DEVICE/Target/usbd_conf.c ****     break;
 659:USB_DEVICE/Target/usbd_conf.c ****   }
 660:USB_DEVICE/Target/usbd_conf.c ****   return usb_status;
  59              		.loc 1 660 3 is_stmt 1 view .LVU8
 661:USB_DEVICE/Target/usbd_conf.c **** }
  60              		.loc 1 661 1 is_stmt 0 view .LVU9
  61 0012 7047     		bx	lr
  62              		.cfi_endproc
  63              	.LFE157:
  65              		.section	.text.HAL_PCD_MspInit,"ax",%progbits
  66              		.align	1
  67              		.global	HAL_PCD_MspInit
  68              		.syntax unified
  69              		.thumb
  70              		.thumb_func
  71              		.fpu fpv4-sp-d16
  73              	HAL_PCD_MspInit:
  74              	.LVL5:
  75              	.LFB126:
  71:USB_DEVICE/Target/usbd_conf.c ****   if(pcdHandle->Instance==USB)
  76              		.loc 1 71 1 is_stmt 1 view -0
  77              		.cfi_startproc
  78              		@ args = 0, pretend = 0, frame = 8
  79              		@ frame_needed = 0, uses_anonymous_args = 0
  72:USB_DEVICE/Target/usbd_conf.c ****   {
ARM GAS  C:\Users\pierr\AppData\Local\Temp\ccKdR2x8.s 			page 14


  80              		.loc 1 72 3 view .LVU11
  72:USB_DEVICE/Target/usbd_conf.c ****   {
  81              		.loc 1 72 15 is_stmt 0 view .LVU12
  82 0000 0268     		ldr	r2, [r0]
  72:USB_DEVICE/Target/usbd_conf.c ****   {
  83              		.loc 1 72 5 view .LVU13
  84 0002 0E4B     		ldr	r3, .L14
  85 0004 9A42     		cmp	r2, r3
  86 0006 00D0     		beq	.L13
  87 0008 7047     		bx	lr
  88              	.L13:
  71:USB_DEVICE/Target/usbd_conf.c ****   if(pcdHandle->Instance==USB)
  89              		.loc 1 71 1 view .LVU14
  90 000a 00B5     		push	{lr}
  91              	.LCFI0:
  92              		.cfi_def_cfa_offset 4
  93              		.cfi_offset 14, -4
  94 000c 83B0     		sub	sp, sp, #12
  95              	.LCFI1:
  96              		.cfi_def_cfa_offset 16
  78:USB_DEVICE/Target/usbd_conf.c **** 
  97              		.loc 1 78 5 is_stmt 1 view .LVU15
  98              	.LBB2:
  78:USB_DEVICE/Target/usbd_conf.c **** 
  99              		.loc 1 78 5 view .LVU16
  78:USB_DEVICE/Target/usbd_conf.c **** 
 100              		.loc 1 78 5 view .LVU17
 101 000e 03F5DA33 		add	r3, r3, #111616
 102 0012 DA69     		ldr	r2, [r3, #28]
 103 0014 42F40002 		orr	r2, r2, #8388608
 104 0018 DA61     		str	r2, [r3, #28]
  78:USB_DEVICE/Target/usbd_conf.c **** 
 105              		.loc 1 78 5 view .LVU18
 106 001a DB69     		ldr	r3, [r3, #28]
 107 001c 03F40003 		and	r3, r3, #8388608
 108 0020 0193     		str	r3, [sp, #4]
  78:USB_DEVICE/Target/usbd_conf.c **** 
 109              		.loc 1 78 5 view .LVU19
 110 0022 019B     		ldr	r3, [sp, #4]
 111              	.LBE2:
  78:USB_DEVICE/Target/usbd_conf.c **** 
 112              		.loc 1 78 5 view .LVU20
  81:USB_DEVICE/Target/usbd_conf.c ****     HAL_NVIC_EnableIRQ(USB_LP_CAN_RX0_IRQn);
 113              		.loc 1 81 5 view .LVU21
 114 0024 0022     		movs	r2, #0
 115 0026 1146     		mov	r1, r2
 116 0028 1420     		movs	r0, #20
 117              	.LVL6:
  81:USB_DEVICE/Target/usbd_conf.c ****     HAL_NVIC_EnableIRQ(USB_LP_CAN_RX0_IRQn);
 118              		.loc 1 81 5 is_stmt 0 view .LVU22
 119 002a FFF7FEFF 		bl	HAL_NVIC_SetPriority
 120              	.LVL7:
  82:USB_DEVICE/Target/usbd_conf.c ****   /* USER CODE BEGIN USB_MspInit 1 */
 121              		.loc 1 82 5 is_stmt 1 view .LVU23
 122 002e 1420     		movs	r0, #20
 123 0030 FFF7FEFF 		bl	HAL_NVIC_EnableIRQ
 124              	.LVL8:
ARM GAS  C:\Users\pierr\AppData\Local\Temp\ccKdR2x8.s 			page 15


  87:USB_DEVICE/Target/usbd_conf.c **** 
 125              		.loc 1 87 1 is_stmt 0 view .LVU24
 126 0034 03B0     		add	sp, sp, #12
 127              	.LCFI2:
 128              		.cfi_def_cfa_offset 4
 129              		@ sp needed
 130 0036 5DF804FB 		ldr	pc, [sp], #4
 131              	.L15:
 132 003a 00BF     		.align	2
 133              	.L14:
 134 003c 005C0040 		.word	1073765376
 135              		.cfi_endproc
 136              	.LFE126:
 138              		.section	.text.HAL_PCD_MspDeInit,"ax",%progbits
 139              		.align	1
 140              		.global	HAL_PCD_MspDeInit
 141              		.syntax unified
 142              		.thumb
 143              		.thumb_func
 144              		.fpu fpv4-sp-d16
 146              	HAL_PCD_MspDeInit:
 147              	.LVL9:
 148              	.LFB127:
  90:USB_DEVICE/Target/usbd_conf.c ****   if(pcdHandle->Instance==USB)
 149              		.loc 1 90 1 is_stmt 1 view -0
 150              		.cfi_startproc
 151              		@ args = 0, pretend = 0, frame = 0
 152              		@ frame_needed = 0, uses_anonymous_args = 0
  90:USB_DEVICE/Target/usbd_conf.c ****   if(pcdHandle->Instance==USB)
 153              		.loc 1 90 1 is_stmt 0 view .LVU26
 154 0000 08B5     		push	{r3, lr}
 155              	.LCFI3:
 156              		.cfi_def_cfa_offset 8
 157              		.cfi_offset 3, -8
 158              		.cfi_offset 14, -4
  91:USB_DEVICE/Target/usbd_conf.c ****   {
 159              		.loc 1 91 3 is_stmt 1 view .LVU27
  91:USB_DEVICE/Target/usbd_conf.c ****   {
 160              		.loc 1 91 15 is_stmt 0 view .LVU28
 161 0002 0268     		ldr	r2, [r0]
  91:USB_DEVICE/Target/usbd_conf.c ****   {
 162              		.loc 1 91 5 view .LVU29
 163 0004 064B     		ldr	r3, .L20
 164 0006 9A42     		cmp	r2, r3
 165 0008 00D0     		beq	.L19
 166              	.LVL10:
 167              	.L16:
 106:USB_DEVICE/Target/usbd_conf.c **** 
 168              		.loc 1 106 1 view .LVU30
 169 000a 08BD     		pop	{r3, pc}
 170              	.LVL11:
 171              	.L19:
  97:USB_DEVICE/Target/usbd_conf.c **** 
 172              		.loc 1 97 5 is_stmt 1 view .LVU31
 173 000c 054A     		ldr	r2, .L20+4
 174 000e D369     		ldr	r3, [r2, #28]
 175 0010 23F40003 		bic	r3, r3, #8388608
ARM GAS  C:\Users\pierr\AppData\Local\Temp\ccKdR2x8.s 			page 16


 176 0014 D361     		str	r3, [r2, #28]
 100:USB_DEVICE/Target/usbd_conf.c **** 
 177              		.loc 1 100 5 view .LVU32
 178 0016 1420     		movs	r0, #20
 179              	.LVL12:
 100:USB_DEVICE/Target/usbd_conf.c **** 
 180              		.loc 1 100 5 is_stmt 0 view .LVU33
 181 0018 FFF7FEFF 		bl	HAL_NVIC_DisableIRQ
 182              	.LVL13:
 106:USB_DEVICE/Target/usbd_conf.c **** 
 183              		.loc 1 106 1 view .LVU34
 184 001c F5E7     		b	.L16
 185              	.L21:
 186 001e 00BF     		.align	2
 187              	.L20:
 188 0020 005C0040 		.word	1073765376
 189 0024 00100240 		.word	1073876992
 190              		.cfi_endproc
 191              	.LFE127:
 193              		.section	.text.HAL_PCD_SetupStageCallback,"ax",%progbits
 194              		.align	1
 195              		.global	HAL_PCD_SetupStageCallback
 196              		.syntax unified
 197              		.thumb
 198              		.thumb_func
 199              		.fpu fpv4-sp-d16
 201              	HAL_PCD_SetupStageCallback:
 202              	.LVL14:
 203              	.LFB128:
 118:USB_DEVICE/Target/usbd_conf.c ****   USBD_LL_SetupStage((USBD_HandleTypeDef*)hpcd->pData, (uint8_t *)hpcd->Setup);
 204              		.loc 1 118 1 is_stmt 1 view -0
 205              		.cfi_startproc
 206              		@ args = 0, pretend = 0, frame = 0
 207              		@ frame_needed = 0, uses_anonymous_args = 0
 118:USB_DEVICE/Target/usbd_conf.c ****   USBD_LL_SetupStage((USBD_HandleTypeDef*)hpcd->pData, (uint8_t *)hpcd->Setup);
 208              		.loc 1 118 1 is_stmt 0 view .LVU36
 209 0000 08B5     		push	{r3, lr}
 210              	.LCFI4:
 211              		.cfi_def_cfa_offset 8
 212              		.cfi_offset 3, -8
 213              		.cfi_offset 14, -4
 119:USB_DEVICE/Target/usbd_conf.c **** }
 214              		.loc 1 119 3 is_stmt 1 view .LVU37
 215 0002 00F52C71 		add	r1, r0, #688
 216 0006 D0F8E802 		ldr	r0, [r0, #744]
 217              	.LVL15:
 119:USB_DEVICE/Target/usbd_conf.c **** }
 218              		.loc 1 119 3 is_stmt 0 view .LVU38
 219 000a FFF7FEFF 		bl	USBD_LL_SetupStage
 220              	.LVL16:
 120:USB_DEVICE/Target/usbd_conf.c **** 
 221              		.loc 1 120 1 view .LVU39
 222 000e 08BD     		pop	{r3, pc}
 223              		.cfi_endproc
 224              	.LFE128:
 226              		.section	.text.HAL_PCD_DataOutStageCallback,"ax",%progbits
 227              		.align	1
ARM GAS  C:\Users\pierr\AppData\Local\Temp\ccKdR2x8.s 			page 17


 228              		.global	HAL_PCD_DataOutStageCallback
 229              		.syntax unified
 230              		.thumb
 231              		.thumb_func
 232              		.fpu fpv4-sp-d16
 234              	HAL_PCD_DataOutStageCallback:
 235              	.LVL17:
 236              	.LFB129:
 133:USB_DEVICE/Target/usbd_conf.c ****   USBD_LL_DataOutStage((USBD_HandleTypeDef*)hpcd->pData, epnum, hpcd->OUT_ep[epnum].xfer_buff);
 237              		.loc 1 133 1 is_stmt 1 view -0
 238              		.cfi_startproc
 239              		@ args = 0, pretend = 0, frame = 0
 240              		@ frame_needed = 0, uses_anonymous_args = 0
 133:USB_DEVICE/Target/usbd_conf.c ****   USBD_LL_DataOutStage((USBD_HandleTypeDef*)hpcd->pData, epnum, hpcd->OUT_ep[epnum].xfer_buff);
 241              		.loc 1 133 1 is_stmt 0 view .LVU41
 242 0000 08B5     		push	{r3, lr}
 243              	.LCFI5:
 244              		.cfi_def_cfa_offset 8
 245              		.cfi_offset 3, -8
 246              		.cfi_offset 14, -4
 134:USB_DEVICE/Target/usbd_conf.c **** }
 247              		.loc 1 134 3 is_stmt 1 view .LVU42
 248 0002 01EB8103 		add	r3, r1, r1, lsl #2
 249 0006 00EBC303 		add	r3, r0, r3, lsl #3
 250 000a D3F87C21 		ldr	r2, [r3, #380]
 251 000e D0F8E802 		ldr	r0, [r0, #744]
 252              	.LVL18:
 134:USB_DEVICE/Target/usbd_conf.c **** }
 253              		.loc 1 134 3 is_stmt 0 view .LVU43
 254 0012 FFF7FEFF 		bl	USBD_LL_DataOutStage
 255              	.LVL19:
 135:USB_DEVICE/Target/usbd_conf.c **** 
 256              		.loc 1 135 1 view .LVU44
 257 0016 08BD     		pop	{r3, pc}
 258              		.cfi_endproc
 259              	.LFE129:
 261              		.section	.text.HAL_PCD_DataInStageCallback,"ax",%progbits
 262              		.align	1
 263              		.global	HAL_PCD_DataInStageCallback
 264              		.syntax unified
 265              		.thumb
 266              		.thumb_func
 267              		.fpu fpv4-sp-d16
 269              	HAL_PCD_DataInStageCallback:
 270              	.LVL20:
 271              	.LFB130:
 148:USB_DEVICE/Target/usbd_conf.c ****   USBD_LL_DataInStage((USBD_HandleTypeDef*)hpcd->pData, epnum, hpcd->IN_ep[epnum].xfer_buff);
 272              		.loc 1 148 1 is_stmt 1 view -0
 273              		.cfi_startproc
 274              		@ args = 0, pretend = 0, frame = 0
 275              		@ frame_needed = 0, uses_anonymous_args = 0
 148:USB_DEVICE/Target/usbd_conf.c ****   USBD_LL_DataInStage((USBD_HandleTypeDef*)hpcd->pData, epnum, hpcd->IN_ep[epnum].xfer_buff);
 276              		.loc 1 148 1 is_stmt 0 view .LVU46
 277 0000 08B5     		push	{r3, lr}
 278              	.LCFI6:
 279              		.cfi_def_cfa_offset 8
 280              		.cfi_offset 3, -8
ARM GAS  C:\Users\pierr\AppData\Local\Temp\ccKdR2x8.s 			page 18


 281              		.cfi_offset 14, -4
 149:USB_DEVICE/Target/usbd_conf.c **** }
 282              		.loc 1 149 3 is_stmt 1 view .LVU47
 283 0002 01EB8103 		add	r3, r1, r1, lsl #2
 284 0006 00EBC303 		add	r3, r0, r3, lsl #3
 285 000a DA6B     		ldr	r2, [r3, #60]
 286 000c D0F8E802 		ldr	r0, [r0, #744]
 287              	.LVL21:
 149:USB_DEVICE/Target/usbd_conf.c **** }
 288              		.loc 1 149 3 is_stmt 0 view .LVU48
 289 0010 FFF7FEFF 		bl	USBD_LL_DataInStage
 290              	.LVL22:
 150:USB_DEVICE/Target/usbd_conf.c **** 
 291              		.loc 1 150 1 view .LVU49
 292 0014 08BD     		pop	{r3, pc}
 293              		.cfi_endproc
 294              	.LFE130:
 296              		.section	.text.HAL_PCD_SOFCallback,"ax",%progbits
 297              		.align	1
 298              		.global	HAL_PCD_SOFCallback
 299              		.syntax unified
 300              		.thumb
 301              		.thumb_func
 302              		.fpu fpv4-sp-d16
 304              	HAL_PCD_SOFCallback:
 305              	.LVL23:
 306              	.LFB131:
 162:USB_DEVICE/Target/usbd_conf.c ****   USBD_LL_SOF((USBD_HandleTypeDef*)hpcd->pData);
 307              		.loc 1 162 1 is_stmt 1 view -0
 308              		.cfi_startproc
 309              		@ args = 0, pretend = 0, frame = 0
 310              		@ frame_needed = 0, uses_anonymous_args = 0
 162:USB_DEVICE/Target/usbd_conf.c ****   USBD_LL_SOF((USBD_HandleTypeDef*)hpcd->pData);
 311              		.loc 1 162 1 is_stmt 0 view .LVU51
 312 0000 08B5     		push	{r3, lr}
 313              	.LCFI7:
 314              		.cfi_def_cfa_offset 8
 315              		.cfi_offset 3, -8
 316              		.cfi_offset 14, -4
 163:USB_DEVICE/Target/usbd_conf.c **** }
 317              		.loc 1 163 3 is_stmt 1 view .LVU52
 318 0002 D0F8E802 		ldr	r0, [r0, #744]
 319              	.LVL24:
 163:USB_DEVICE/Target/usbd_conf.c **** }
 320              		.loc 1 163 3 is_stmt 0 view .LVU53
 321 0006 FFF7FEFF 		bl	USBD_LL_SOF
 322              	.LVL25:
 164:USB_DEVICE/Target/usbd_conf.c **** 
 323              		.loc 1 164 1 view .LVU54
 324 000a 08BD     		pop	{r3, pc}
 325              		.cfi_endproc
 326              	.LFE131:
 328              		.section	.text.HAL_PCD_ResetCallback,"ax",%progbits
 329              		.align	1
 330              		.global	HAL_PCD_ResetCallback
 331              		.syntax unified
 332              		.thumb
ARM GAS  C:\Users\pierr\AppData\Local\Temp\ccKdR2x8.s 			page 19


 333              		.thumb_func
 334              		.fpu fpv4-sp-d16
 336              	HAL_PCD_ResetCallback:
 337              	.LVL26:
 338              	.LFB132:
 176:USB_DEVICE/Target/usbd_conf.c ****   USBD_SpeedTypeDef speed = USBD_SPEED_FULL;
 339              		.loc 1 176 1 is_stmt 1 view -0
 340              		.cfi_startproc
 341              		@ args = 0, pretend = 0, frame = 0
 342              		@ frame_needed = 0, uses_anonymous_args = 0
 176:USB_DEVICE/Target/usbd_conf.c ****   USBD_SpeedTypeDef speed = USBD_SPEED_FULL;
 343              		.loc 1 176 1 is_stmt 0 view .LVU56
 344 0000 10B5     		push	{r4, lr}
 345              	.LCFI8:
 346              		.cfi_def_cfa_offset 8
 347              		.cfi_offset 4, -8
 348              		.cfi_offset 14, -4
 349 0002 0446     		mov	r4, r0
 177:USB_DEVICE/Target/usbd_conf.c **** 
 350              		.loc 1 177 3 is_stmt 1 view .LVU57
 351              	.LVL27:
 179:USB_DEVICE/Target/usbd_conf.c ****   {
 352              		.loc 1 179 3 view .LVU58
 179:USB_DEVICE/Target/usbd_conf.c ****   {
 353              		.loc 1 179 18 is_stmt 0 view .LVU59
 354 0004 8368     		ldr	r3, [r0, #8]
 179:USB_DEVICE/Target/usbd_conf.c ****   {
 355              		.loc 1 179 6 view .LVU60
 356 0006 022B     		cmp	r3, #2
 357 0008 09D1     		bne	.L33
 358              	.LVL28:
 359              	.L31:
 184:USB_DEVICE/Target/usbd_conf.c **** 
 360              		.loc 1 184 3 is_stmt 1 view .LVU61
 361 000a 0121     		movs	r1, #1
 362 000c D4F8E802 		ldr	r0, [r4, #744]
 363 0010 FFF7FEFF 		bl	USBD_LL_SetSpeed
 364              	.LVL29:
 187:USB_DEVICE/Target/usbd_conf.c **** }
 365              		.loc 1 187 3 view .LVU62
 366 0014 D4F8E802 		ldr	r0, [r4, #744]
 367 0018 FFF7FEFF 		bl	USBD_LL_Reset
 368              	.LVL30:
 188:USB_DEVICE/Target/usbd_conf.c **** 
 369              		.loc 1 188 1 is_stmt 0 view .LVU63
 370 001c 10BD     		pop	{r4, pc}
 371              	.LVL31:
 372              	.L33:
 181:USB_DEVICE/Target/usbd_conf.c ****   }
 373              		.loc 1 181 5 is_stmt 1 view .LVU64
 374 001e FFF7FEFF 		bl	Error_Handler
 375              	.LVL32:
 181:USB_DEVICE/Target/usbd_conf.c ****   }
 376              		.loc 1 181 5 is_stmt 0 view .LVU65
 377 0022 F2E7     		b	.L31
 378              		.cfi_endproc
 379              	.LFE132:
ARM GAS  C:\Users\pierr\AppData\Local\Temp\ccKdR2x8.s 			page 20


 381              		.section	.text.HAL_PCD_SuspendCallback,"ax",%progbits
 382              		.align	1
 383              		.global	HAL_PCD_SuspendCallback
 384              		.syntax unified
 385              		.thumb
 386              		.thumb_func
 387              		.fpu fpv4-sp-d16
 389              	HAL_PCD_SuspendCallback:
 390              	.LVL33:
 391              	.LFB133:
 201:USB_DEVICE/Target/usbd_conf.c ****   /* Inform USB library that core enters in suspend Mode. */
 392              		.loc 1 201 1 is_stmt 1 view -0
 393              		.cfi_startproc
 394              		@ args = 0, pretend = 0, frame = 0
 395              		@ frame_needed = 0, uses_anonymous_args = 0
 201:USB_DEVICE/Target/usbd_conf.c ****   /* Inform USB library that core enters in suspend Mode. */
 396              		.loc 1 201 1 is_stmt 0 view .LVU67
 397 0000 10B5     		push	{r4, lr}
 398              	.LCFI9:
 399              		.cfi_def_cfa_offset 8
 400              		.cfi_offset 4, -8
 401              		.cfi_offset 14, -4
 402 0002 0446     		mov	r4, r0
 203:USB_DEVICE/Target/usbd_conf.c ****   /* Enter in STOP mode. */
 403              		.loc 1 203 3 is_stmt 1 view .LVU68
 404 0004 D0F8E802 		ldr	r0, [r0, #744]
 405              	.LVL34:
 203:USB_DEVICE/Target/usbd_conf.c ****   /* Enter in STOP mode. */
 406              		.loc 1 203 3 is_stmt 0 view .LVU69
 407 0008 FFF7FEFF 		bl	USBD_LL_Suspend
 408              	.LVL35:
 206:USB_DEVICE/Target/usbd_conf.c ****   {
 409              		.loc 1 206 3 is_stmt 1 view .LVU70
 206:USB_DEVICE/Target/usbd_conf.c ****   {
 410              		.loc 1 206 17 is_stmt 0 view .LVU71
 411 000c A369     		ldr	r3, [r4, #24]
 206:USB_DEVICE/Target/usbd_conf.c ****   {
 412              		.loc 1 206 6 view .LVU72
 413 000e 23B1     		cbz	r3, .L34
 209:USB_DEVICE/Target/usbd_conf.c ****   }
 414              		.loc 1 209 5 is_stmt 1 view .LVU73
 209:USB_DEVICE/Target/usbd_conf.c ****   }
 415              		.loc 1 209 14 is_stmt 0 view .LVU74
 416 0010 024A     		ldr	r2, .L37
 417 0012 1369     		ldr	r3, [r2, #16]
 418 0014 43F00603 		orr	r3, r3, #6
 419 0018 1361     		str	r3, [r2, #16]
 420              	.L34:
 212:USB_DEVICE/Target/usbd_conf.c **** 
 421              		.loc 1 212 1 view .LVU75
 422 001a 10BD     		pop	{r4, pc}
 423              	.LVL36:
 424              	.L38:
 212:USB_DEVICE/Target/usbd_conf.c **** 
 425              		.loc 1 212 1 view .LVU76
 426              		.align	2
 427              	.L37:
ARM GAS  C:\Users\pierr\AppData\Local\Temp\ccKdR2x8.s 			page 21


 428 001c 00ED00E0 		.word	-536810240
 429              		.cfi_endproc
 430              	.LFE133:
 432              		.section	.text.HAL_PCD_ResumeCallback,"ax",%progbits
 433              		.align	1
 434              		.global	HAL_PCD_ResumeCallback
 435              		.syntax unified
 436              		.thumb
 437              		.thumb_func
 438              		.fpu fpv4-sp-d16
 440              	HAL_PCD_ResumeCallback:
 441              	.LVL37:
 442              	.LFB134:
 225:USB_DEVICE/Target/usbd_conf.c ****   /* USER CODE BEGIN 3 */
 443              		.loc 1 225 1 is_stmt 1 view -0
 444              		.cfi_startproc
 445              		@ args = 0, pretend = 0, frame = 0
 446              		@ frame_needed = 0, uses_anonymous_args = 0
 225:USB_DEVICE/Target/usbd_conf.c ****   /* USER CODE BEGIN 3 */
 447              		.loc 1 225 1 is_stmt 0 view .LVU78
 448 0000 08B5     		push	{r3, lr}
 449              	.LCFI10:
 450              		.cfi_def_cfa_offset 8
 451              		.cfi_offset 3, -8
 452              		.cfi_offset 14, -4
 229:USB_DEVICE/Target/usbd_conf.c **** }
 453              		.loc 1 229 3 is_stmt 1 view .LVU79
 454 0002 D0F8E802 		ldr	r0, [r0, #744]
 455              	.LVL38:
 229:USB_DEVICE/Target/usbd_conf.c **** }
 456              		.loc 1 229 3 is_stmt 0 view .LVU80
 457 0006 FFF7FEFF 		bl	USBD_LL_Resume
 458              	.LVL39:
 230:USB_DEVICE/Target/usbd_conf.c **** 
 459              		.loc 1 230 1 view .LVU81
 460 000a 08BD     		pop	{r3, pc}
 461              		.cfi_endproc
 462              	.LFE134:
 464              		.section	.text.HAL_PCD_ISOOUTIncompleteCallback,"ax",%progbits
 465              		.align	1
 466              		.global	HAL_PCD_ISOOUTIncompleteCallback
 467              		.syntax unified
 468              		.thumb
 469              		.thumb_func
 470              		.fpu fpv4-sp-d16
 472              	HAL_PCD_ISOOUTIncompleteCallback:
 473              	.LVL40:
 474              	.LFB135:
 243:USB_DEVICE/Target/usbd_conf.c ****   USBD_LL_IsoOUTIncomplete((USBD_HandleTypeDef*)hpcd->pData, epnum);
 475              		.loc 1 243 1 is_stmt 1 view -0
 476              		.cfi_startproc
 477              		@ args = 0, pretend = 0, frame = 0
 478              		@ frame_needed = 0, uses_anonymous_args = 0
 243:USB_DEVICE/Target/usbd_conf.c ****   USBD_LL_IsoOUTIncomplete((USBD_HandleTypeDef*)hpcd->pData, epnum);
 479              		.loc 1 243 1 is_stmt 0 view .LVU83
 480 0000 08B5     		push	{r3, lr}
 481              	.LCFI11:
ARM GAS  C:\Users\pierr\AppData\Local\Temp\ccKdR2x8.s 			page 22


 482              		.cfi_def_cfa_offset 8
 483              		.cfi_offset 3, -8
 484              		.cfi_offset 14, -4
 244:USB_DEVICE/Target/usbd_conf.c **** }
 485              		.loc 1 244 3 is_stmt 1 view .LVU84
 486 0002 D0F8E802 		ldr	r0, [r0, #744]
 487              	.LVL41:
 244:USB_DEVICE/Target/usbd_conf.c **** }
 488              		.loc 1 244 3 is_stmt 0 view .LVU85
 489 0006 FFF7FEFF 		bl	USBD_LL_IsoOUTIncomplete
 490              	.LVL42:
 245:USB_DEVICE/Target/usbd_conf.c **** 
 491              		.loc 1 245 1 view .LVU86
 492 000a 08BD     		pop	{r3, pc}
 493              		.cfi_endproc
 494              	.LFE135:
 496              		.section	.text.HAL_PCD_ISOINIncompleteCallback,"ax",%progbits
 497              		.align	1
 498              		.global	HAL_PCD_ISOINIncompleteCallback
 499              		.syntax unified
 500              		.thumb
 501              		.thumb_func
 502              		.fpu fpv4-sp-d16
 504              	HAL_PCD_ISOINIncompleteCallback:
 505              	.LVL43:
 506              	.LFB136:
 258:USB_DEVICE/Target/usbd_conf.c ****   USBD_LL_IsoINIncomplete((USBD_HandleTypeDef*)hpcd->pData, epnum);
 507              		.loc 1 258 1 is_stmt 1 view -0
 508              		.cfi_startproc
 509              		@ args = 0, pretend = 0, frame = 0
 510              		@ frame_needed = 0, uses_anonymous_args = 0
 258:USB_DEVICE/Target/usbd_conf.c ****   USBD_LL_IsoINIncomplete((USBD_HandleTypeDef*)hpcd->pData, epnum);
 511              		.loc 1 258 1 is_stmt 0 view .LVU88
 512 0000 08B5     		push	{r3, lr}
 513              	.LCFI12:
 514              		.cfi_def_cfa_offset 8
 515              		.cfi_offset 3, -8
 516              		.cfi_offset 14, -4
 259:USB_DEVICE/Target/usbd_conf.c **** }
 517              		.loc 1 259 3 is_stmt 1 view .LVU89
 518 0002 D0F8E802 		ldr	r0, [r0, #744]
 519              	.LVL44:
 259:USB_DEVICE/Target/usbd_conf.c **** }
 520              		.loc 1 259 3 is_stmt 0 view .LVU90
 521 0006 FFF7FEFF 		bl	USBD_LL_IsoINIncomplete
 522              	.LVL45:
 260:USB_DEVICE/Target/usbd_conf.c **** 
 523              		.loc 1 260 1 view .LVU91
 524 000a 08BD     		pop	{r3, pc}
 525              		.cfi_endproc
 526              	.LFE136:
 528              		.section	.text.HAL_PCD_ConnectCallback,"ax",%progbits
 529              		.align	1
 530              		.global	HAL_PCD_ConnectCallback
 531              		.syntax unified
 532              		.thumb
 533              		.thumb_func
ARM GAS  C:\Users\pierr\AppData\Local\Temp\ccKdR2x8.s 			page 23


 534              		.fpu fpv4-sp-d16
 536              	HAL_PCD_ConnectCallback:
 537              	.LVL46:
 538              	.LFB137:
 272:USB_DEVICE/Target/usbd_conf.c ****   USBD_LL_DevConnected((USBD_HandleTypeDef*)hpcd->pData);
 539              		.loc 1 272 1 is_stmt 1 view -0
 540              		.cfi_startproc
 541              		@ args = 0, pretend = 0, frame = 0
 542              		@ frame_needed = 0, uses_anonymous_args = 0
 272:USB_DEVICE/Target/usbd_conf.c ****   USBD_LL_DevConnected((USBD_HandleTypeDef*)hpcd->pData);
 543              		.loc 1 272 1 is_stmt 0 view .LVU93
 544 0000 08B5     		push	{r3, lr}
 545              	.LCFI13:
 546              		.cfi_def_cfa_offset 8
 547              		.cfi_offset 3, -8
 548              		.cfi_offset 14, -4
 273:USB_DEVICE/Target/usbd_conf.c **** }
 549              		.loc 1 273 3 is_stmt 1 view .LVU94
 550 0002 D0F8E802 		ldr	r0, [r0, #744]
 551              	.LVL47:
 273:USB_DEVICE/Target/usbd_conf.c **** }
 552              		.loc 1 273 3 is_stmt 0 view .LVU95
 553 0006 FFF7FEFF 		bl	USBD_LL_DevConnected
 554              	.LVL48:
 274:USB_DEVICE/Target/usbd_conf.c **** 
 555              		.loc 1 274 1 view .LVU96
 556 000a 08BD     		pop	{r3, pc}
 557              		.cfi_endproc
 558              	.LFE137:
 560              		.section	.text.HAL_PCD_DisconnectCallback,"ax",%progbits
 561              		.align	1
 562              		.global	HAL_PCD_DisconnectCallback
 563              		.syntax unified
 564              		.thumb
 565              		.thumb_func
 566              		.fpu fpv4-sp-d16
 568              	HAL_PCD_DisconnectCallback:
 569              	.LVL49:
 570              	.LFB138:
 286:USB_DEVICE/Target/usbd_conf.c ****   USBD_LL_DevDisconnected((USBD_HandleTypeDef*)hpcd->pData);
 571              		.loc 1 286 1 is_stmt 1 view -0
 572              		.cfi_startproc
 573              		@ args = 0, pretend = 0, frame = 0
 574              		@ frame_needed = 0, uses_anonymous_args = 0
 286:USB_DEVICE/Target/usbd_conf.c ****   USBD_LL_DevDisconnected((USBD_HandleTypeDef*)hpcd->pData);
 575              		.loc 1 286 1 is_stmt 0 view .LVU98
 576 0000 08B5     		push	{r3, lr}
 577              	.LCFI14:
 578              		.cfi_def_cfa_offset 8
 579              		.cfi_offset 3, -8
 580              		.cfi_offset 14, -4
 287:USB_DEVICE/Target/usbd_conf.c **** }
 581              		.loc 1 287 3 is_stmt 1 view .LVU99
 582 0002 D0F8E802 		ldr	r0, [r0, #744]
 583              	.LVL50:
 287:USB_DEVICE/Target/usbd_conf.c **** }
 584              		.loc 1 287 3 is_stmt 0 view .LVU100
ARM GAS  C:\Users\pierr\AppData\Local\Temp\ccKdR2x8.s 			page 24


 585 0006 FFF7FEFF 		bl	USBD_LL_DevDisconnected
 586              	.LVL51:
 288:USB_DEVICE/Target/usbd_conf.c **** 
 587              		.loc 1 288 1 view .LVU101
 588 000a 08BD     		pop	{r3, pc}
 589              		.cfi_endproc
 590              	.LFE138:
 592              		.section	.text.USBD_LL_Init,"ax",%progbits
 593              		.align	1
 594              		.global	USBD_LL_Init
 595              		.syntax unified
 596              		.thumb
 597              		.thumb_func
 598              		.fpu fpv4-sp-d16
 600              	USBD_LL_Init:
 601              	.LVL52:
 602              	.LFB139:
 300:USB_DEVICE/Target/usbd_conf.c ****   /* Init USB Ip. */
 603              		.loc 1 300 1 is_stmt 1 view -0
 604              		.cfi_startproc
 605              		@ args = 0, pretend = 0, frame = 0
 606              		@ frame_needed = 0, uses_anonymous_args = 0
 300:USB_DEVICE/Target/usbd_conf.c ****   /* Init USB Ip. */
 607              		.loc 1 300 1 is_stmt 0 view .LVU103
 608 0000 10B5     		push	{r4, lr}
 609              	.LCFI15:
 610              		.cfi_def_cfa_offset 8
 611              		.cfi_offset 4, -8
 612              		.cfi_offset 14, -4
 613 0002 0446     		mov	r4, r0
 303:USB_DEVICE/Target/usbd_conf.c ****   pdev->pData = &hpcd_USB_FS;
 614              		.loc 1 303 3 is_stmt 1 view .LVU104
 303:USB_DEVICE/Target/usbd_conf.c ****   pdev->pData = &hpcd_USB_FS;
 615              		.loc 1 303 21 is_stmt 0 view .LVU105
 616 0004 1D48     		ldr	r0, .L53
 617              	.LVL53:
 303:USB_DEVICE/Target/usbd_conf.c ****   pdev->pData = &hpcd_USB_FS;
 618              		.loc 1 303 21 view .LVU106
 619 0006 C0F8E842 		str	r4, [r0, #744]
 304:USB_DEVICE/Target/usbd_conf.c **** 
 620              		.loc 1 304 3 is_stmt 1 view .LVU107
 304:USB_DEVICE/Target/usbd_conf.c **** 
 621              		.loc 1 304 15 is_stmt 0 view .LVU108
 622 000a C4F8C002 		str	r0, [r4, #704]
 306:USB_DEVICE/Target/usbd_conf.c ****   hpcd_USB_FS.Init.dev_endpoints = 8;
 623              		.loc 1 306 3 is_stmt 1 view .LVU109
 306:USB_DEVICE/Target/usbd_conf.c ****   hpcd_USB_FS.Init.dev_endpoints = 8;
 624              		.loc 1 306 24 is_stmt 0 view .LVU110
 625 000e 1C4B     		ldr	r3, .L53+4
 626 0010 0360     		str	r3, [r0]
 307:USB_DEVICE/Target/usbd_conf.c ****   hpcd_USB_FS.Init.speed = PCD_SPEED_FULL;
 627              		.loc 1 307 3 is_stmt 1 view .LVU111
 307:USB_DEVICE/Target/usbd_conf.c ****   hpcd_USB_FS.Init.speed = PCD_SPEED_FULL;
 628              		.loc 1 307 34 is_stmt 0 view .LVU112
 629 0012 0823     		movs	r3, #8
 630 0014 4360     		str	r3, [r0, #4]
 308:USB_DEVICE/Target/usbd_conf.c ****   hpcd_USB_FS.Init.phy_itface = PCD_PHY_EMBEDDED;
ARM GAS  C:\Users\pierr\AppData\Local\Temp\ccKdR2x8.s 			page 25


 631              		.loc 1 308 3 is_stmt 1 view .LVU113
 308:USB_DEVICE/Target/usbd_conf.c ****   hpcd_USB_FS.Init.phy_itface = PCD_PHY_EMBEDDED;
 632              		.loc 1 308 26 is_stmt 0 view .LVU114
 633 0016 0223     		movs	r3, #2
 634 0018 8360     		str	r3, [r0, #8]
 309:USB_DEVICE/Target/usbd_conf.c ****   hpcd_USB_FS.Init.low_power_enable = DISABLE;
 635              		.loc 1 309 3 is_stmt 1 view .LVU115
 309:USB_DEVICE/Target/usbd_conf.c ****   hpcd_USB_FS.Init.low_power_enable = DISABLE;
 636              		.loc 1 309 31 is_stmt 0 view .LVU116
 637 001a 0361     		str	r3, [r0, #16]
 310:USB_DEVICE/Target/usbd_conf.c ****   hpcd_USB_FS.Init.battery_charging_enable = DISABLE;
 638              		.loc 1 310 3 is_stmt 1 view .LVU117
 310:USB_DEVICE/Target/usbd_conf.c ****   hpcd_USB_FS.Init.battery_charging_enable = DISABLE;
 639              		.loc 1 310 37 is_stmt 0 view .LVU118
 640 001c 0023     		movs	r3, #0
 641 001e 8361     		str	r3, [r0, #24]
 311:USB_DEVICE/Target/usbd_conf.c ****   if (HAL_PCD_Init(&hpcd_USB_FS) != HAL_OK)
 642              		.loc 1 311 3 is_stmt 1 view .LVU119
 311:USB_DEVICE/Target/usbd_conf.c ****   if (HAL_PCD_Init(&hpcd_USB_FS) != HAL_OK)
 643              		.loc 1 311 44 is_stmt 0 view .LVU120
 644 0020 0362     		str	r3, [r0, #32]
 312:USB_DEVICE/Target/usbd_conf.c ****   {
 645              		.loc 1 312 3 is_stmt 1 view .LVU121
 312:USB_DEVICE/Target/usbd_conf.c ****   {
 646              		.loc 1 312 7 is_stmt 0 view .LVU122
 647 0022 FFF7FEFF 		bl	HAL_PCD_Init
 648              	.LVL54:
 312:USB_DEVICE/Target/usbd_conf.c ****   {
 649              		.loc 1 312 6 view .LVU123
 650 0026 30BB     		cbnz	r0, .L52
 651              	.L50:
 333:USB_DEVICE/Target/usbd_conf.c ****   HAL_PCDEx_PMAConfig((PCD_HandleTypeDef*)pdev->pData , 0x80 , PCD_SNG_BUF, 0x58);
 652              		.loc 1 333 3 is_stmt 1 view .LVU124
 653 0028 1823     		movs	r3, #24
 654 002a 0022     		movs	r2, #0
 655 002c 1146     		mov	r1, r2
 656 002e D4F8C002 		ldr	r0, [r4, #704]
 657 0032 FFF7FEFF 		bl	HAL_PCDEx_PMAConfig
 658              	.LVL55:
 334:USB_DEVICE/Target/usbd_conf.c ****   /* USER CODE END EndPoint_Configuration */
 659              		.loc 1 334 3 view .LVU125
 660 0036 5823     		movs	r3, #88
 661 0038 0022     		movs	r2, #0
 662 003a 8021     		movs	r1, #128
 663 003c D4F8C002 		ldr	r0, [r4, #704]
 664 0040 FFF7FEFF 		bl	HAL_PCDEx_PMAConfig
 665              	.LVL56:
 337:USB_DEVICE/Target/usbd_conf.c ****   HAL_PCDEx_PMAConfig((PCD_HandleTypeDef*)pdev->pData , 0x01 , PCD_SNG_BUF, 0x110);
 666              		.loc 1 337 3 view .LVU126
 667 0044 C023     		movs	r3, #192
 668 0046 0022     		movs	r2, #0
 669 0048 8121     		movs	r1, #129
 670 004a D4F8C002 		ldr	r0, [r4, #704]
 671 004e FFF7FEFF 		bl	HAL_PCDEx_PMAConfig
 672              	.LVL57:
 338:USB_DEVICE/Target/usbd_conf.c ****   HAL_PCDEx_PMAConfig((PCD_HandleTypeDef*)pdev->pData , 0x82 , PCD_SNG_BUF, 0x100);
 673              		.loc 1 338 3 view .LVU127
ARM GAS  C:\Users\pierr\AppData\Local\Temp\ccKdR2x8.s 			page 26


 674 0052 4FF48873 		mov	r3, #272
 675 0056 0022     		movs	r2, #0
 676 0058 0121     		movs	r1, #1
 677 005a D4F8C002 		ldr	r0, [r4, #704]
 678 005e FFF7FEFF 		bl	HAL_PCDEx_PMAConfig
 679              	.LVL58:
 339:USB_DEVICE/Target/usbd_conf.c ****   /* USER CODE END EndPoint_Configuration_CDC */
 680              		.loc 1 339 3 view .LVU128
 681 0062 4FF48073 		mov	r3, #256
 682 0066 0022     		movs	r2, #0
 683 0068 8221     		movs	r1, #130
 684 006a D4F8C002 		ldr	r0, [r4, #704]
 685 006e FFF7FEFF 		bl	HAL_PCDEx_PMAConfig
 686              	.LVL59:
 341:USB_DEVICE/Target/usbd_conf.c **** }
 687              		.loc 1 341 3 view .LVU129
 342:USB_DEVICE/Target/usbd_conf.c **** 
 688              		.loc 1 342 1 is_stmt 0 view .LVU130
 689 0072 0020     		movs	r0, #0
 690 0074 10BD     		pop	{r4, pc}
 691              	.LVL60:
 692              	.L52:
 314:USB_DEVICE/Target/usbd_conf.c ****   }
 693              		.loc 1 314 5 is_stmt 1 view .LVU131
 694 0076 FFF7FEFF 		bl	Error_Handler
 695              	.LVL61:
 696 007a D5E7     		b	.L50
 697              	.L54:
 698              		.align	2
 699              	.L53:
 700 007c 00000000 		.word	hpcd_USB_FS
 701 0080 005C0040 		.word	1073765376
 702              		.cfi_endproc
 703              	.LFE139:
 705              		.section	.text.USBD_LL_DeInit,"ax",%progbits
 706              		.align	1
 707              		.global	USBD_LL_DeInit
 708              		.syntax unified
 709              		.thumb
 710              		.thumb_func
 711              		.fpu fpv4-sp-d16
 713              	USBD_LL_DeInit:
 714              	.LVL62:
 715              	.LFB140:
 350:USB_DEVICE/Target/usbd_conf.c ****   HAL_StatusTypeDef hal_status = HAL_OK;
 716              		.loc 1 350 1 view -0
 717              		.cfi_startproc
 718              		@ args = 0, pretend = 0, frame = 0
 719              		@ frame_needed = 0, uses_anonymous_args = 0
 350:USB_DEVICE/Target/usbd_conf.c ****   HAL_StatusTypeDef hal_status = HAL_OK;
 720              		.loc 1 350 1 is_stmt 0 view .LVU133
 721 0000 08B5     		push	{r3, lr}
 722              	.LCFI16:
 723              		.cfi_def_cfa_offset 8
 724              		.cfi_offset 3, -8
 725              		.cfi_offset 14, -4
 351:USB_DEVICE/Target/usbd_conf.c ****   USBD_StatusTypeDef usb_status = USBD_OK;
ARM GAS  C:\Users\pierr\AppData\Local\Temp\ccKdR2x8.s 			page 27


 726              		.loc 1 351 3 is_stmt 1 view .LVU134
 727              	.LVL63:
 352:USB_DEVICE/Target/usbd_conf.c **** 
 728              		.loc 1 352 3 view .LVU135
 354:USB_DEVICE/Target/usbd_conf.c **** 
 729              		.loc 1 354 3 view .LVU136
 354:USB_DEVICE/Target/usbd_conf.c **** 
 730              		.loc 1 354 16 is_stmt 0 view .LVU137
 731 0002 D0F8C002 		ldr	r0, [r0, #704]
 732              	.LVL64:
 354:USB_DEVICE/Target/usbd_conf.c **** 
 733              		.loc 1 354 16 view .LVU138
 734 0006 FFF7FEFF 		bl	HAL_PCD_DeInit
 735              	.LVL65:
 356:USB_DEVICE/Target/usbd_conf.c **** 
 736              		.loc 1 356 3 is_stmt 1 view .LVU139
 356:USB_DEVICE/Target/usbd_conf.c **** 
 737              		.loc 1 356 17 is_stmt 0 view .LVU140
 738 000a FFF7FEFF 		bl	USBD_Get_USB_Status
 739              	.LVL66:
 358:USB_DEVICE/Target/usbd_conf.c **** }
 740              		.loc 1 358 3 is_stmt 1 view .LVU141
 359:USB_DEVICE/Target/usbd_conf.c **** 
 741              		.loc 1 359 1 is_stmt 0 view .LVU142
 742 000e 08BD     		pop	{r3, pc}
 743              		.cfi_endproc
 744              	.LFE140:
 746              		.section	.text.USBD_LL_Start,"ax",%progbits
 747              		.align	1
 748              		.global	USBD_LL_Start
 749              		.syntax unified
 750              		.thumb
 751              		.thumb_func
 752              		.fpu fpv4-sp-d16
 754              	USBD_LL_Start:
 755              	.LVL67:
 756              	.LFB141:
 367:USB_DEVICE/Target/usbd_conf.c ****   HAL_StatusTypeDef hal_status = HAL_OK;
 757              		.loc 1 367 1 is_stmt 1 view -0
 758              		.cfi_startproc
 759              		@ args = 0, pretend = 0, frame = 0
 760              		@ frame_needed = 0, uses_anonymous_args = 0
 367:USB_DEVICE/Target/usbd_conf.c ****   HAL_StatusTypeDef hal_status = HAL_OK;
 761              		.loc 1 367 1 is_stmt 0 view .LVU144
 762 0000 08B5     		push	{r3, lr}
 763              	.LCFI17:
 764              		.cfi_def_cfa_offset 8
 765              		.cfi_offset 3, -8
 766              		.cfi_offset 14, -4
 368:USB_DEVICE/Target/usbd_conf.c ****   USBD_StatusTypeDef usb_status = USBD_OK;
 767              		.loc 1 368 3 is_stmt 1 view .LVU145
 768              	.LVL68:
 369:USB_DEVICE/Target/usbd_conf.c **** 
 769              		.loc 1 369 3 view .LVU146
 371:USB_DEVICE/Target/usbd_conf.c **** 
 770              		.loc 1 371 3 view .LVU147
 371:USB_DEVICE/Target/usbd_conf.c **** 
ARM GAS  C:\Users\pierr\AppData\Local\Temp\ccKdR2x8.s 			page 28


 771              		.loc 1 371 16 is_stmt 0 view .LVU148
 772 0002 D0F8C002 		ldr	r0, [r0, #704]
 773              	.LVL69:
 371:USB_DEVICE/Target/usbd_conf.c **** 
 774              		.loc 1 371 16 view .LVU149
 775 0006 FFF7FEFF 		bl	HAL_PCD_Start
 776              	.LVL70:
 373:USB_DEVICE/Target/usbd_conf.c **** 
 777              		.loc 1 373 3 is_stmt 1 view .LVU150
 373:USB_DEVICE/Target/usbd_conf.c **** 
 778              		.loc 1 373 17 is_stmt 0 view .LVU151
 779 000a FFF7FEFF 		bl	USBD_Get_USB_Status
 780              	.LVL71:
 375:USB_DEVICE/Target/usbd_conf.c **** }
 781              		.loc 1 375 3 is_stmt 1 view .LVU152
 376:USB_DEVICE/Target/usbd_conf.c **** 
 782              		.loc 1 376 1 is_stmt 0 view .LVU153
 783 000e 08BD     		pop	{r3, pc}
 784              		.cfi_endproc
 785              	.LFE141:
 787              		.section	.text.USBD_LL_Stop,"ax",%progbits
 788              		.align	1
 789              		.global	USBD_LL_Stop
 790              		.syntax unified
 791              		.thumb
 792              		.thumb_func
 793              		.fpu fpv4-sp-d16
 795              	USBD_LL_Stop:
 796              	.LVL72:
 797              	.LFB142:
 384:USB_DEVICE/Target/usbd_conf.c ****   HAL_StatusTypeDef hal_status = HAL_OK;
 798              		.loc 1 384 1 is_stmt 1 view -0
 799              		.cfi_startproc
 800              		@ args = 0, pretend = 0, frame = 0
 801              		@ frame_needed = 0, uses_anonymous_args = 0
 384:USB_DEVICE/Target/usbd_conf.c ****   HAL_StatusTypeDef hal_status = HAL_OK;
 802              		.loc 1 384 1 is_stmt 0 view .LVU155
 803 0000 08B5     		push	{r3, lr}
 804              	.LCFI18:
 805              		.cfi_def_cfa_offset 8
 806              		.cfi_offset 3, -8
 807              		.cfi_offset 14, -4
 385:USB_DEVICE/Target/usbd_conf.c ****   USBD_StatusTypeDef usb_status = USBD_OK;
 808              		.loc 1 385 3 is_stmt 1 view .LVU156
 809              	.LVL73:
 386:USB_DEVICE/Target/usbd_conf.c **** 
 810              		.loc 1 386 3 view .LVU157
 388:USB_DEVICE/Target/usbd_conf.c **** 
 811              		.loc 1 388 3 view .LVU158
 388:USB_DEVICE/Target/usbd_conf.c **** 
 812              		.loc 1 388 16 is_stmt 0 view .LVU159
 813 0002 D0F8C002 		ldr	r0, [r0, #704]
 814              	.LVL74:
 388:USB_DEVICE/Target/usbd_conf.c **** 
 815              		.loc 1 388 16 view .LVU160
 816 0006 FFF7FEFF 		bl	HAL_PCD_Stop
 817              	.LVL75:
ARM GAS  C:\Users\pierr\AppData\Local\Temp\ccKdR2x8.s 			page 29


 390:USB_DEVICE/Target/usbd_conf.c **** 
 818              		.loc 1 390 3 is_stmt 1 view .LVU161
 390:USB_DEVICE/Target/usbd_conf.c **** 
 819              		.loc 1 390 17 is_stmt 0 view .LVU162
 820 000a FFF7FEFF 		bl	USBD_Get_USB_Status
 821              	.LVL76:
 392:USB_DEVICE/Target/usbd_conf.c **** }
 822              		.loc 1 392 3 is_stmt 1 view .LVU163
 393:USB_DEVICE/Target/usbd_conf.c **** 
 823              		.loc 1 393 1 is_stmt 0 view .LVU164
 824 000e 08BD     		pop	{r3, pc}
 825              		.cfi_endproc
 826              	.LFE142:
 828              		.section	.text.USBD_LL_OpenEP,"ax",%progbits
 829              		.align	1
 830              		.global	USBD_LL_OpenEP
 831              		.syntax unified
 832              		.thumb
 833              		.thumb_func
 834              		.fpu fpv4-sp-d16
 836              	USBD_LL_OpenEP:
 837              	.LVL77:
 838              	.LFB143:
 404:USB_DEVICE/Target/usbd_conf.c ****   HAL_StatusTypeDef hal_status = HAL_OK;
 839              		.loc 1 404 1 is_stmt 1 view -0
 840              		.cfi_startproc
 841              		@ args = 0, pretend = 0, frame = 0
 842              		@ frame_needed = 0, uses_anonymous_args = 0
 404:USB_DEVICE/Target/usbd_conf.c ****   HAL_StatusTypeDef hal_status = HAL_OK;
 843              		.loc 1 404 1 is_stmt 0 view .LVU166
 844 0000 10B5     		push	{r4, lr}
 845              	.LCFI19:
 846              		.cfi_def_cfa_offset 8
 847              		.cfi_offset 4, -8
 848              		.cfi_offset 14, -4
 849 0002 1446     		mov	r4, r2
 850 0004 1A46     		mov	r2, r3
 851              	.LVL78:
 405:USB_DEVICE/Target/usbd_conf.c ****   USBD_StatusTypeDef usb_status = USBD_OK;
 852              		.loc 1 405 3 is_stmt 1 view .LVU167
 406:USB_DEVICE/Target/usbd_conf.c **** 
 853              		.loc 1 406 3 view .LVU168
 408:USB_DEVICE/Target/usbd_conf.c **** 
 854              		.loc 1 408 3 view .LVU169
 408:USB_DEVICE/Target/usbd_conf.c **** 
 855              		.loc 1 408 16 is_stmt 0 view .LVU170
 856 0006 2346     		mov	r3, r4
 857              	.LVL79:
 408:USB_DEVICE/Target/usbd_conf.c **** 
 858              		.loc 1 408 16 view .LVU171
 859 0008 D0F8C002 		ldr	r0, [r0, #704]
 860              	.LVL80:
 408:USB_DEVICE/Target/usbd_conf.c **** 
 861              		.loc 1 408 16 view .LVU172
 862 000c FFF7FEFF 		bl	HAL_PCD_EP_Open
 863              	.LVL81:
 410:USB_DEVICE/Target/usbd_conf.c **** 
ARM GAS  C:\Users\pierr\AppData\Local\Temp\ccKdR2x8.s 			page 30


 864              		.loc 1 410 3 is_stmt 1 view .LVU173
 410:USB_DEVICE/Target/usbd_conf.c **** 
 865              		.loc 1 410 17 is_stmt 0 view .LVU174
 866 0010 FFF7FEFF 		bl	USBD_Get_USB_Status
 867              	.LVL82:
 412:USB_DEVICE/Target/usbd_conf.c **** }
 868              		.loc 1 412 3 is_stmt 1 view .LVU175
 413:USB_DEVICE/Target/usbd_conf.c **** 
 869              		.loc 1 413 1 is_stmt 0 view .LVU176
 870 0014 10BD     		pop	{r4, pc}
 871              		.cfi_endproc
 872              	.LFE143:
 874              		.section	.text.USBD_LL_CloseEP,"ax",%progbits
 875              		.align	1
 876              		.global	USBD_LL_CloseEP
 877              		.syntax unified
 878              		.thumb
 879              		.thumb_func
 880              		.fpu fpv4-sp-d16
 882              	USBD_LL_CloseEP:
 883              	.LVL83:
 884              	.LFB144:
 422:USB_DEVICE/Target/usbd_conf.c ****   HAL_StatusTypeDef hal_status = HAL_OK;
 885              		.loc 1 422 1 is_stmt 1 view -0
 886              		.cfi_startproc
 887              		@ args = 0, pretend = 0, frame = 0
 888              		@ frame_needed = 0, uses_anonymous_args = 0
 422:USB_DEVICE/Target/usbd_conf.c ****   HAL_StatusTypeDef hal_status = HAL_OK;
 889              		.loc 1 422 1 is_stmt 0 view .LVU178
 890 0000 08B5     		push	{r3, lr}
 891              	.LCFI20:
 892              		.cfi_def_cfa_offset 8
 893              		.cfi_offset 3, -8
 894              		.cfi_offset 14, -4
 423:USB_DEVICE/Target/usbd_conf.c ****   USBD_StatusTypeDef usb_status = USBD_OK;
 895              		.loc 1 423 3 is_stmt 1 view .LVU179
 896              	.LVL84:
 424:USB_DEVICE/Target/usbd_conf.c **** 
 897              		.loc 1 424 3 view .LVU180
 426:USB_DEVICE/Target/usbd_conf.c **** 
 898              		.loc 1 426 3 view .LVU181
 426:USB_DEVICE/Target/usbd_conf.c **** 
 899              		.loc 1 426 16 is_stmt 0 view .LVU182
 900 0002 D0F8C002 		ldr	r0, [r0, #704]
 901              	.LVL85:
 426:USB_DEVICE/Target/usbd_conf.c **** 
 902              		.loc 1 426 16 view .LVU183
 903 0006 FFF7FEFF 		bl	HAL_PCD_EP_Close
 904              	.LVL86:
 428:USB_DEVICE/Target/usbd_conf.c **** 
 905              		.loc 1 428 3 is_stmt 1 view .LVU184
 428:USB_DEVICE/Target/usbd_conf.c **** 
 906              		.loc 1 428 17 is_stmt 0 view .LVU185
 907 000a FFF7FEFF 		bl	USBD_Get_USB_Status
 908              	.LVL87:
 430:USB_DEVICE/Target/usbd_conf.c **** }
 909              		.loc 1 430 3 is_stmt 1 view .LVU186
ARM GAS  C:\Users\pierr\AppData\Local\Temp\ccKdR2x8.s 			page 31


 431:USB_DEVICE/Target/usbd_conf.c **** 
 910              		.loc 1 431 1 is_stmt 0 view .LVU187
 911 000e 08BD     		pop	{r3, pc}
 912              		.cfi_endproc
 913              	.LFE144:
 915              		.section	.text.USBD_LL_FlushEP,"ax",%progbits
 916              		.align	1
 917              		.global	USBD_LL_FlushEP
 918              		.syntax unified
 919              		.thumb
 920              		.thumb_func
 921              		.fpu fpv4-sp-d16
 923              	USBD_LL_FlushEP:
 924              	.LVL88:
 925              	.LFB145:
 440:USB_DEVICE/Target/usbd_conf.c ****   HAL_StatusTypeDef hal_status = HAL_OK;
 926              		.loc 1 440 1 is_stmt 1 view -0
 927              		.cfi_startproc
 928              		@ args = 0, pretend = 0, frame = 0
 929              		@ frame_needed = 0, uses_anonymous_args = 0
 440:USB_DEVICE/Target/usbd_conf.c ****   HAL_StatusTypeDef hal_status = HAL_OK;
 930              		.loc 1 440 1 is_stmt 0 view .LVU189
 931 0000 08B5     		push	{r3, lr}
 932              	.LCFI21:
 933              		.cfi_def_cfa_offset 8
 934              		.cfi_offset 3, -8
 935              		.cfi_offset 14, -4
 441:USB_DEVICE/Target/usbd_conf.c ****   USBD_StatusTypeDef usb_status = USBD_OK;
 936              		.loc 1 441 3 is_stmt 1 view .LVU190
 937              	.LVL89:
 442:USB_DEVICE/Target/usbd_conf.c **** 
 938              		.loc 1 442 3 view .LVU191
 444:USB_DEVICE/Target/usbd_conf.c **** 
 939              		.loc 1 444 3 view .LVU192
 444:USB_DEVICE/Target/usbd_conf.c **** 
 940              		.loc 1 444 16 is_stmt 0 view .LVU193
 941 0002 D0F8C002 		ldr	r0, [r0, #704]
 942              	.LVL90:
 444:USB_DEVICE/Target/usbd_conf.c **** 
 943              		.loc 1 444 16 view .LVU194
 944 0006 FFF7FEFF 		bl	HAL_PCD_EP_Flush
 945              	.LVL91:
 446:USB_DEVICE/Target/usbd_conf.c **** 
 946              		.loc 1 446 3 is_stmt 1 view .LVU195
 446:USB_DEVICE/Target/usbd_conf.c **** 
 947              		.loc 1 446 17 is_stmt 0 view .LVU196
 948 000a FFF7FEFF 		bl	USBD_Get_USB_Status
 949              	.LVL92:
 448:USB_DEVICE/Target/usbd_conf.c **** }
 950              		.loc 1 448 3 is_stmt 1 view .LVU197
 449:USB_DEVICE/Target/usbd_conf.c **** 
 951              		.loc 1 449 1 is_stmt 0 view .LVU198
 952 000e 08BD     		pop	{r3, pc}
 953              		.cfi_endproc
 954              	.LFE145:
 956              		.section	.text.USBD_LL_StallEP,"ax",%progbits
 957              		.align	1
ARM GAS  C:\Users\pierr\AppData\Local\Temp\ccKdR2x8.s 			page 32


 958              		.global	USBD_LL_StallEP
 959              		.syntax unified
 960              		.thumb
 961              		.thumb_func
 962              		.fpu fpv4-sp-d16
 964              	USBD_LL_StallEP:
 965              	.LVL93:
 966              	.LFB146:
 458:USB_DEVICE/Target/usbd_conf.c ****   HAL_StatusTypeDef hal_status = HAL_OK;
 967              		.loc 1 458 1 is_stmt 1 view -0
 968              		.cfi_startproc
 969              		@ args = 0, pretend = 0, frame = 0
 970              		@ frame_needed = 0, uses_anonymous_args = 0
 458:USB_DEVICE/Target/usbd_conf.c ****   HAL_StatusTypeDef hal_status = HAL_OK;
 971              		.loc 1 458 1 is_stmt 0 view .LVU200
 972 0000 08B5     		push	{r3, lr}
 973              	.LCFI22:
 974              		.cfi_def_cfa_offset 8
 975              		.cfi_offset 3, -8
 976              		.cfi_offset 14, -4
 459:USB_DEVICE/Target/usbd_conf.c ****   USBD_StatusTypeDef usb_status = USBD_OK;
 977              		.loc 1 459 3 is_stmt 1 view .LVU201
 978              	.LVL94:
 460:USB_DEVICE/Target/usbd_conf.c **** 
 979              		.loc 1 460 3 view .LVU202
 462:USB_DEVICE/Target/usbd_conf.c **** 
 980              		.loc 1 462 3 view .LVU203
 462:USB_DEVICE/Target/usbd_conf.c **** 
 981              		.loc 1 462 16 is_stmt 0 view .LVU204
 982 0002 D0F8C002 		ldr	r0, [r0, #704]
 983              	.LVL95:
 462:USB_DEVICE/Target/usbd_conf.c **** 
 984              		.loc 1 462 16 view .LVU205
 985 0006 FFF7FEFF 		bl	HAL_PCD_EP_SetStall
 986              	.LVL96:
 464:USB_DEVICE/Target/usbd_conf.c **** 
 987              		.loc 1 464 3 is_stmt 1 view .LVU206
 464:USB_DEVICE/Target/usbd_conf.c **** 
 988              		.loc 1 464 17 is_stmt 0 view .LVU207
 989 000a FFF7FEFF 		bl	USBD_Get_USB_Status
 990              	.LVL97:
 466:USB_DEVICE/Target/usbd_conf.c **** }
 991              		.loc 1 466 3 is_stmt 1 view .LVU208
 467:USB_DEVICE/Target/usbd_conf.c **** 
 992              		.loc 1 467 1 is_stmt 0 view .LVU209
 993 000e 08BD     		pop	{r3, pc}
 994              		.cfi_endproc
 995              	.LFE146:
 997              		.section	.text.USBD_LL_ClearStallEP,"ax",%progbits
 998              		.align	1
 999              		.global	USBD_LL_ClearStallEP
 1000              		.syntax unified
 1001              		.thumb
 1002              		.thumb_func
 1003              		.fpu fpv4-sp-d16
 1005              	USBD_LL_ClearStallEP:
 1006              	.LVL98:
ARM GAS  C:\Users\pierr\AppData\Local\Temp\ccKdR2x8.s 			page 33


 1007              	.LFB147:
 476:USB_DEVICE/Target/usbd_conf.c ****   HAL_StatusTypeDef hal_status = HAL_OK;
 1008              		.loc 1 476 1 is_stmt 1 view -0
 1009              		.cfi_startproc
 1010              		@ args = 0, pretend = 0, frame = 0
 1011              		@ frame_needed = 0, uses_anonymous_args = 0
 476:USB_DEVICE/Target/usbd_conf.c ****   HAL_StatusTypeDef hal_status = HAL_OK;
 1012              		.loc 1 476 1 is_stmt 0 view .LVU211
 1013 0000 08B5     		push	{r3, lr}
 1014              	.LCFI23:
 1015              		.cfi_def_cfa_offset 8
 1016              		.cfi_offset 3, -8
 1017              		.cfi_offset 14, -4
 477:USB_DEVICE/Target/usbd_conf.c ****   USBD_StatusTypeDef usb_status = USBD_OK;
 1018              		.loc 1 477 3 is_stmt 1 view .LVU212
 1019              	.LVL99:
 478:USB_DEVICE/Target/usbd_conf.c **** 
 1020              		.loc 1 478 3 view .LVU213
 480:USB_DEVICE/Target/usbd_conf.c **** 
 1021              		.loc 1 480 3 view .LVU214
 480:USB_DEVICE/Target/usbd_conf.c **** 
 1022              		.loc 1 480 16 is_stmt 0 view .LVU215
 1023 0002 D0F8C002 		ldr	r0, [r0, #704]
 1024              	.LVL100:
 480:USB_DEVICE/Target/usbd_conf.c **** 
 1025              		.loc 1 480 16 view .LVU216
 1026 0006 FFF7FEFF 		bl	HAL_PCD_EP_ClrStall
 1027              	.LVL101:
 482:USB_DEVICE/Target/usbd_conf.c **** 
 1028              		.loc 1 482 3 is_stmt 1 view .LVU217
 482:USB_DEVICE/Target/usbd_conf.c **** 
 1029              		.loc 1 482 17 is_stmt 0 view .LVU218
 1030 000a FFF7FEFF 		bl	USBD_Get_USB_Status
 1031              	.LVL102:
 484:USB_DEVICE/Target/usbd_conf.c **** }
 1032              		.loc 1 484 3 is_stmt 1 view .LVU219
 485:USB_DEVICE/Target/usbd_conf.c **** 
 1033              		.loc 1 485 1 is_stmt 0 view .LVU220
 1034 000e 08BD     		pop	{r3, pc}
 1035              		.cfi_endproc
 1036              	.LFE147:
 1038              		.section	.text.USBD_LL_IsStallEP,"ax",%progbits
 1039              		.align	1
 1040              		.global	USBD_LL_IsStallEP
 1041              		.syntax unified
 1042              		.thumb
 1043              		.thumb_func
 1044              		.fpu fpv4-sp-d16
 1046              	USBD_LL_IsStallEP:
 1047              	.LVL103:
 1048              	.LFB148:
 494:USB_DEVICE/Target/usbd_conf.c ****   PCD_HandleTypeDef *hpcd = (PCD_HandleTypeDef*) pdev->pData;
 1049              		.loc 1 494 1 is_stmt 1 view -0
 1050              		.cfi_startproc
 1051              		@ args = 0, pretend = 0, frame = 0
 1052              		@ frame_needed = 0, uses_anonymous_args = 0
 1053              		@ link register save eliminated.
ARM GAS  C:\Users\pierr\AppData\Local\Temp\ccKdR2x8.s 			page 34


 495:USB_DEVICE/Target/usbd_conf.c **** 
 1054              		.loc 1 495 3 view .LVU222
 495:USB_DEVICE/Target/usbd_conf.c **** 
 1055              		.loc 1 495 22 is_stmt 0 view .LVU223
 1056 0000 D0F8C032 		ldr	r3, [r0, #704]
 1057              	.LVL104:
 497:USB_DEVICE/Target/usbd_conf.c ****   {
 1058              		.loc 1 497 3 is_stmt 1 view .LVU224
 497:USB_DEVICE/Target/usbd_conf.c ****   {
 1059              		.loc 1 497 5 is_stmt 0 view .LVU225
 1060 0004 11F0800F 		tst	r1, #128
 1061 0008 08D1     		bne	.L74
 503:USB_DEVICE/Target/usbd_conf.c ****   }
 1062              		.loc 1 503 5 is_stmt 1 view .LVU226
 503:USB_DEVICE/Target/usbd_conf.c ****   }
 1063              		.loc 1 503 33 is_stmt 0 view .LVU227
 1064 000a 01F07F01 		and	r1, r1, #127
 1065              	.LVL105:
 503:USB_DEVICE/Target/usbd_conf.c ****   }
 1066              		.loc 1 503 40 view .LVU228
 1067 000e 01EB8101 		add	r1, r1, r1, lsl #2
 1068 0012 03EBC101 		add	r1, r3, r1, lsl #3
 1069 0016 91F86A01 		ldrb	r0, [r1, #362]	@ zero_extendqisi2
 1070              	.LVL106:
 505:USB_DEVICE/Target/usbd_conf.c **** 
 1071              		.loc 1 505 1 view .LVU229
 1072 001a 7047     		bx	lr
 1073              	.LVL107:
 1074              	.L74:
 499:USB_DEVICE/Target/usbd_conf.c ****   }
 1075              		.loc 1 499 5 is_stmt 1 view .LVU230
 499:USB_DEVICE/Target/usbd_conf.c ****   }
 1076              		.loc 1 499 32 is_stmt 0 view .LVU231
 1077 001c 01F07F01 		and	r1, r1, #127
 1078              	.LVL108:
 499:USB_DEVICE/Target/usbd_conf.c ****   }
 1079              		.loc 1 499 39 view .LVU232
 1080 0020 0131     		adds	r1, r1, #1
 1081 0022 01EB8101 		add	r1, r1, r1, lsl #2
 1082 0026 03EBC101 		add	r1, r3, r1, lsl #3
 1083 002a 8878     		ldrb	r0, [r1, #2]	@ zero_extendqisi2
 1084              	.LVL109:
 499:USB_DEVICE/Target/usbd_conf.c ****   }
 1085              		.loc 1 499 39 view .LVU233
 1086 002c 7047     		bx	lr
 1087              		.cfi_endproc
 1088              	.LFE148:
 1090              		.section	.text.USBD_LL_SetUSBAddress,"ax",%progbits
 1091              		.align	1
 1092              		.global	USBD_LL_SetUSBAddress
 1093              		.syntax unified
 1094              		.thumb
 1095              		.thumb_func
 1096              		.fpu fpv4-sp-d16
 1098              	USBD_LL_SetUSBAddress:
 1099              	.LVL110:
 1100              	.LFB149:
ARM GAS  C:\Users\pierr\AppData\Local\Temp\ccKdR2x8.s 			page 35


 514:USB_DEVICE/Target/usbd_conf.c ****   HAL_StatusTypeDef hal_status = HAL_OK;
 1101              		.loc 1 514 1 is_stmt 1 view -0
 1102              		.cfi_startproc
 1103              		@ args = 0, pretend = 0, frame = 0
 1104              		@ frame_needed = 0, uses_anonymous_args = 0
 514:USB_DEVICE/Target/usbd_conf.c ****   HAL_StatusTypeDef hal_status = HAL_OK;
 1105              		.loc 1 514 1 is_stmt 0 view .LVU235
 1106 0000 08B5     		push	{r3, lr}
 1107              	.LCFI24:
 1108              		.cfi_def_cfa_offset 8
 1109              		.cfi_offset 3, -8
 1110              		.cfi_offset 14, -4
 515:USB_DEVICE/Target/usbd_conf.c ****   USBD_StatusTypeDef usb_status = USBD_OK;
 1111              		.loc 1 515 3 is_stmt 1 view .LVU236
 1112              	.LVL111:
 516:USB_DEVICE/Target/usbd_conf.c **** 
 1113              		.loc 1 516 3 view .LVU237
 518:USB_DEVICE/Target/usbd_conf.c **** 
 1114              		.loc 1 518 3 view .LVU238
 518:USB_DEVICE/Target/usbd_conf.c **** 
 1115              		.loc 1 518 16 is_stmt 0 view .LVU239
 1116 0002 D0F8C002 		ldr	r0, [r0, #704]
 1117              	.LVL112:
 518:USB_DEVICE/Target/usbd_conf.c **** 
 1118              		.loc 1 518 16 view .LVU240
 1119 0006 FFF7FEFF 		bl	HAL_PCD_SetAddress
 1120              	.LVL113:
 520:USB_DEVICE/Target/usbd_conf.c **** 
 1121              		.loc 1 520 3 is_stmt 1 view .LVU241
 520:USB_DEVICE/Target/usbd_conf.c **** 
 1122              		.loc 1 520 17 is_stmt 0 view .LVU242
 1123 000a FFF7FEFF 		bl	USBD_Get_USB_Status
 1124              	.LVL114:
 522:USB_DEVICE/Target/usbd_conf.c **** }
 1125              		.loc 1 522 3 is_stmt 1 view .LVU243
 523:USB_DEVICE/Target/usbd_conf.c **** 
 1126              		.loc 1 523 1 is_stmt 0 view .LVU244
 1127 000e 08BD     		pop	{r3, pc}
 1128              		.cfi_endproc
 1129              	.LFE149:
 1131              		.section	.text.USBD_LL_Transmit,"ax",%progbits
 1132              		.align	1
 1133              		.global	USBD_LL_Transmit
 1134              		.syntax unified
 1135              		.thumb
 1136              		.thumb_func
 1137              		.fpu fpv4-sp-d16
 1139              	USBD_LL_Transmit:
 1140              	.LVL115:
 1141              	.LFB150:
 534:USB_DEVICE/Target/usbd_conf.c ****   HAL_StatusTypeDef hal_status = HAL_OK;
 1142              		.loc 1 534 1 is_stmt 1 view -0
 1143              		.cfi_startproc
 1144              		@ args = 0, pretend = 0, frame = 0
 1145              		@ frame_needed = 0, uses_anonymous_args = 0
 534:USB_DEVICE/Target/usbd_conf.c ****   HAL_StatusTypeDef hal_status = HAL_OK;
 1146              		.loc 1 534 1 is_stmt 0 view .LVU246
ARM GAS  C:\Users\pierr\AppData\Local\Temp\ccKdR2x8.s 			page 36


 1147 0000 08B5     		push	{r3, lr}
 1148              	.LCFI25:
 1149              		.cfi_def_cfa_offset 8
 1150              		.cfi_offset 3, -8
 1151              		.cfi_offset 14, -4
 535:USB_DEVICE/Target/usbd_conf.c ****   USBD_StatusTypeDef usb_status = USBD_OK;
 1152              		.loc 1 535 3 is_stmt 1 view .LVU247
 1153              	.LVL116:
 536:USB_DEVICE/Target/usbd_conf.c **** 
 1154              		.loc 1 536 3 view .LVU248
 538:USB_DEVICE/Target/usbd_conf.c **** 
 1155              		.loc 1 538 3 view .LVU249
 538:USB_DEVICE/Target/usbd_conf.c **** 
 1156              		.loc 1 538 16 is_stmt 0 view .LVU250
 1157 0002 D0F8C002 		ldr	r0, [r0, #704]
 1158              	.LVL117:
 538:USB_DEVICE/Target/usbd_conf.c **** 
 1159              		.loc 1 538 16 view .LVU251
 1160 0006 FFF7FEFF 		bl	HAL_PCD_EP_Transmit
 1161              	.LVL118:
 540:USB_DEVICE/Target/usbd_conf.c **** 
 1162              		.loc 1 540 3 is_stmt 1 view .LVU252
 540:USB_DEVICE/Target/usbd_conf.c **** 
 1163              		.loc 1 540 17 is_stmt 0 view .LVU253
 1164 000a FFF7FEFF 		bl	USBD_Get_USB_Status
 1165              	.LVL119:
 542:USB_DEVICE/Target/usbd_conf.c **** }
 1166              		.loc 1 542 3 is_stmt 1 view .LVU254
 543:USB_DEVICE/Target/usbd_conf.c **** 
 1167              		.loc 1 543 1 is_stmt 0 view .LVU255
 1168 000e 08BD     		pop	{r3, pc}
 1169              		.cfi_endproc
 1170              	.LFE150:
 1172              		.section	.text.USBD_LL_PrepareReceive,"ax",%progbits
 1173              		.align	1
 1174              		.global	USBD_LL_PrepareReceive
 1175              		.syntax unified
 1176              		.thumb
 1177              		.thumb_func
 1178              		.fpu fpv4-sp-d16
 1180              	USBD_LL_PrepareReceive:
 1181              	.LVL120:
 1182              	.LFB151:
 554:USB_DEVICE/Target/usbd_conf.c ****   HAL_StatusTypeDef hal_status = HAL_OK;
 1183              		.loc 1 554 1 is_stmt 1 view -0
 1184              		.cfi_startproc
 1185              		@ args = 0, pretend = 0, frame = 0
 1186              		@ frame_needed = 0, uses_anonymous_args = 0
 554:USB_DEVICE/Target/usbd_conf.c ****   HAL_StatusTypeDef hal_status = HAL_OK;
 1187              		.loc 1 554 1 is_stmt 0 view .LVU257
 1188 0000 08B5     		push	{r3, lr}
 1189              	.LCFI26:
 1190              		.cfi_def_cfa_offset 8
 1191              		.cfi_offset 3, -8
 1192              		.cfi_offset 14, -4
 555:USB_DEVICE/Target/usbd_conf.c ****   USBD_StatusTypeDef usb_status = USBD_OK;
 1193              		.loc 1 555 3 is_stmt 1 view .LVU258
ARM GAS  C:\Users\pierr\AppData\Local\Temp\ccKdR2x8.s 			page 37


 1194              	.LVL121:
 556:USB_DEVICE/Target/usbd_conf.c **** 
 1195              		.loc 1 556 3 view .LVU259
 558:USB_DEVICE/Target/usbd_conf.c **** 
 1196              		.loc 1 558 3 view .LVU260
 558:USB_DEVICE/Target/usbd_conf.c **** 
 1197              		.loc 1 558 16 is_stmt 0 view .LVU261
 1198 0002 D0F8C002 		ldr	r0, [r0, #704]
 1199              	.LVL122:
 558:USB_DEVICE/Target/usbd_conf.c **** 
 1200              		.loc 1 558 16 view .LVU262
 1201 0006 FFF7FEFF 		bl	HAL_PCD_EP_Receive
 1202              	.LVL123:
 560:USB_DEVICE/Target/usbd_conf.c **** 
 1203              		.loc 1 560 3 is_stmt 1 view .LVU263
 560:USB_DEVICE/Target/usbd_conf.c **** 
 1204              		.loc 1 560 17 is_stmt 0 view .LVU264
 1205 000a FFF7FEFF 		bl	USBD_Get_USB_Status
 1206              	.LVL124:
 562:USB_DEVICE/Target/usbd_conf.c **** }
 1207              		.loc 1 562 3 is_stmt 1 view .LVU265
 563:USB_DEVICE/Target/usbd_conf.c **** 
 1208              		.loc 1 563 1 is_stmt 0 view .LVU266
 1209 000e 08BD     		pop	{r3, pc}
 1210              		.cfi_endproc
 1211              	.LFE151:
 1213              		.section	.text.USBD_LL_GetRxDataSize,"ax",%progbits
 1214              		.align	1
 1215              		.global	USBD_LL_GetRxDataSize
 1216              		.syntax unified
 1217              		.thumb
 1218              		.thumb_func
 1219              		.fpu fpv4-sp-d16
 1221              	USBD_LL_GetRxDataSize:
 1222              	.LVL125:
 1223              	.LFB152:
 572:USB_DEVICE/Target/usbd_conf.c ****   return HAL_PCD_EP_GetRxCount((PCD_HandleTypeDef*) pdev->pData, ep_addr);
 1224              		.loc 1 572 1 is_stmt 1 view -0
 1225              		.cfi_startproc
 1226              		@ args = 0, pretend = 0, frame = 0
 1227              		@ frame_needed = 0, uses_anonymous_args = 0
 572:USB_DEVICE/Target/usbd_conf.c ****   return HAL_PCD_EP_GetRxCount((PCD_HandleTypeDef*) pdev->pData, ep_addr);
 1228              		.loc 1 572 1 is_stmt 0 view .LVU268
 1229 0000 08B5     		push	{r3, lr}
 1230              	.LCFI27:
 1231              		.cfi_def_cfa_offset 8
 1232              		.cfi_offset 3, -8
 1233              		.cfi_offset 14, -4
 573:USB_DEVICE/Target/usbd_conf.c **** }
 1234              		.loc 1 573 3 is_stmt 1 view .LVU269
 573:USB_DEVICE/Target/usbd_conf.c **** }
 1235              		.loc 1 573 10 is_stmt 0 view .LVU270
 1236 0002 D0F8C002 		ldr	r0, [r0, #704]
 1237              	.LVL126:
 573:USB_DEVICE/Target/usbd_conf.c **** }
 1238              		.loc 1 573 10 view .LVU271
 1239 0006 FFF7FEFF 		bl	HAL_PCD_EP_GetRxCount
ARM GAS  C:\Users\pierr\AppData\Local\Temp\ccKdR2x8.s 			page 38


 1240              	.LVL127:
 574:USB_DEVICE/Target/usbd_conf.c **** 
 1241              		.loc 1 574 1 view .LVU272
 1242 000a 08BD     		pop	{r3, pc}
 1243              		.cfi_endproc
 1244              	.LFE152:
 1246              		.section	.text.USBD_LL_Delay,"ax",%progbits
 1247              		.align	1
 1248              		.global	USBD_LL_Delay
 1249              		.syntax unified
 1250              		.thumb
 1251              		.thumb_func
 1252              		.fpu fpv4-sp-d16
 1254              	USBD_LL_Delay:
 1255              	.LVL128:
 1256              	.LFB153:
 582:USB_DEVICE/Target/usbd_conf.c ****   HAL_Delay(Delay);
 1257              		.loc 1 582 1 is_stmt 1 view -0
 1258              		.cfi_startproc
 1259              		@ args = 0, pretend = 0, frame = 0
 1260              		@ frame_needed = 0, uses_anonymous_args = 0
 582:USB_DEVICE/Target/usbd_conf.c ****   HAL_Delay(Delay);
 1261              		.loc 1 582 1 is_stmt 0 view .LVU274
 1262 0000 08B5     		push	{r3, lr}
 1263              	.LCFI28:
 1264              		.cfi_def_cfa_offset 8
 1265              		.cfi_offset 3, -8
 1266              		.cfi_offset 14, -4
 583:USB_DEVICE/Target/usbd_conf.c **** }
 1267              		.loc 1 583 3 is_stmt 1 view .LVU275
 1268 0002 FFF7FEFF 		bl	HAL_Delay
 1269              	.LVL129:
 584:USB_DEVICE/Target/usbd_conf.c **** 
 1270              		.loc 1 584 1 is_stmt 0 view .LVU276
 1271 0006 08BD     		pop	{r3, pc}
 1272              		.cfi_endproc
 1273              	.LFE153:
 1275              		.section	.text.USBD_static_malloc,"ax",%progbits
 1276              		.align	1
 1277              		.global	USBD_static_malloc
 1278              		.syntax unified
 1279              		.thumb
 1280              		.thumb_func
 1281              		.fpu fpv4-sp-d16
 1283              	USBD_static_malloc:
 1284              	.LVL130:
 1285              	.LFB154:
 592:USB_DEVICE/Target/usbd_conf.c ****   static uint32_t mem[(sizeof(USBD_CDC_HandleTypeDef)/4)+1];/* On 32-bit boundary */
 1286              		.loc 1 592 1 is_stmt 1 view -0
 1287              		.cfi_startproc
 1288              		@ args = 0, pretend = 0, frame = 0
 1289              		@ frame_needed = 0, uses_anonymous_args = 0
 1290              		@ link register save eliminated.
 593:USB_DEVICE/Target/usbd_conf.c ****   return mem;
 1291              		.loc 1 593 3 view .LVU278
 594:USB_DEVICE/Target/usbd_conf.c **** }
 1292              		.loc 1 594 3 view .LVU279
ARM GAS  C:\Users\pierr\AppData\Local\Temp\ccKdR2x8.s 			page 39


 595:USB_DEVICE/Target/usbd_conf.c **** 
 1293              		.loc 1 595 1 is_stmt 0 view .LVU280
 1294 0000 0048     		ldr	r0, .L86
 1295              	.LVL131:
 595:USB_DEVICE/Target/usbd_conf.c **** 
 1296              		.loc 1 595 1 view .LVU281
 1297 0002 7047     		bx	lr
 1298              	.L87:
 1299              		.align	2
 1300              	.L86:
 1301 0004 00000000 		.word	.LANCHOR0
 1302              		.cfi_endproc
 1303              	.LFE154:
 1305              		.section	.text.USBD_static_free,"ax",%progbits
 1306              		.align	1
 1307              		.global	USBD_static_free
 1308              		.syntax unified
 1309              		.thumb
 1310              		.thumb_func
 1311              		.fpu fpv4-sp-d16
 1313              	USBD_static_free:
 1314              	.LVL132:
 1315              	.LFB155:
 603:USB_DEVICE/Target/usbd_conf.c **** 
 1316              		.loc 1 603 1 is_stmt 1 view -0
 1317              		.cfi_startproc
 1318              		@ args = 0, pretend = 0, frame = 0
 1319              		@ frame_needed = 0, uses_anonymous_args = 0
 1320              		@ link register save eliminated.
 605:USB_DEVICE/Target/usbd_conf.c **** 
 1321              		.loc 1 605 1 view .LVU283
 1322 0000 7047     		bx	lr
 1323              		.cfi_endproc
 1324              	.LFE155:
 1326              		.section	.text.HAL_PCDEx_SetConnectionState,"ax",%progbits
 1327              		.align	1
 1328              		.global	HAL_PCDEx_SetConnectionState
 1329              		.syntax unified
 1330              		.thumb
 1331              		.thumb_func
 1332              		.fpu fpv4-sp-d16
 1334              	HAL_PCDEx_SetConnectionState:
 1335              	.LVL133:
 1336              	.LFB156:
 618:USB_DEVICE/Target/usbd_conf.c ****   /* USER CODE BEGIN 6 */
 1337              		.loc 1 618 1 view -0
 1338              		.cfi_startproc
 1339              		@ args = 0, pretend = 0, frame = 0
 1340              		@ frame_needed = 0, uses_anonymous_args = 0
 1341              		@ link register save eliminated.
 620:USB_DEVICE/Target/usbd_conf.c ****   {
 1342              		.loc 1 620 3 view .LVU285
 629:USB_DEVICE/Target/usbd_conf.c ****   /* USER CODE END 6 */
 1343              		.loc 1 629 3 view .LVU286
 631:USB_DEVICE/Target/usbd_conf.c **** 
 1344              		.loc 1 631 1 is_stmt 0 view .LVU287
 1345 0000 7047     		bx	lr
ARM GAS  C:\Users\pierr\AppData\Local\Temp\ccKdR2x8.s 			page 40


 1346              		.cfi_endproc
 1347              	.LFE156:
 1349              		.comm	hpcd_USB_FS,748,4
 1350              		.section	.bss.mem.10025,"aw",%nobits
 1351              		.align	2
 1352              		.set	.LANCHOR0,. + 0
 1355              	mem.10025:
 1356 0000 00000000 		.space	544
 1356      00000000 
 1356      00000000 
 1356      00000000 
 1356      00000000 
 1357              		.text
 1358              	.Letext0:
 1359              		.file 2 "c:\\users\\pierr\\.vscode\\extensions\\buzzyelectronics.stm-helper-1.2.9\\armgcc\\arm-non
 1360              		.file 3 "c:\\users\\pierr\\.vscode\\extensions\\buzzyelectronics.stm-helper-1.2.9\\armgcc\\arm-non
 1361              		.file 4 "Drivers/CMSIS/Include/core_cm4.h"
 1362              		.file 5 "Drivers/CMSIS/Device/ST/STM32F3xx/Include/system_stm32f3xx.h"
 1363              		.file 6 "Drivers/CMSIS/Device/ST/STM32F3xx/Include/stm32f302x8.h"
 1364              		.file 7 "Drivers/CMSIS/Device/ST/STM32F3xx/Include/stm32f3xx.h"
 1365              		.file 8 "Drivers/STM32F3xx_HAL_Driver/Inc/stm32f3xx_hal_def.h"
 1366              		.file 9 "Drivers/STM32F3xx_HAL_Driver/Inc/stm32f3xx_hal_dma.h"
 1367              		.file 10 "Drivers/STM32F3xx_HAL_Driver/Inc/stm32f3xx_ll_usb.h"
 1368              		.file 11 "Drivers/STM32F3xx_HAL_Driver/Inc/stm32f3xx_hal_pcd.h"
 1369              		.file 12 "Drivers/STM32F3xx_HAL_Driver/Inc/stm32f3xx_hal_uart.h"
 1370              		.file 13 "Drivers/STM32F3xx_HAL_Driver/Inc/stm32f3xx_hal.h"
 1371              		.file 14 "c:\\users\\pierr\\.vscode\\extensions\\buzzyelectronics.stm-helper-1.2.9\\armgcc\\arm-no
 1372              		.file 15 "c:\\users\\pierr\\.vscode\\extensions\\buzzyelectronics.stm-helper-1.2.9\\armgcc\\arm-no
 1373              		.file 16 "c:\\users\\pierr\\.vscode\\extensions\\buzzyelectronics.stm-helper-1.2.9\\armgcc\\lib\\g
 1374              		.file 17 "c:\\users\\pierr\\.vscode\\extensions\\buzzyelectronics.stm-helper-1.2.9\\armgcc\\arm-no
 1375              		.file 18 "c:\\users\\pierr\\.vscode\\extensions\\buzzyelectronics.stm-helper-1.2.9\\armgcc\\arm-no
 1376              		.file 19 "Core/Inc/usart.h"
 1377              		.file 20 "Middlewares/ST/STM32_USB_Device_Library/Core/Inc/usbd_def.h"
 1378              		.file 21 "Middlewares/ST/STM32_USB_Device_Library/Class/CDC/Inc/usbd_cdc.h"
 1379              		.file 22 "Drivers/STM32F3xx_HAL_Driver/Inc/stm32f3xx_hal_pcd_ex.h"
 1380              		.file 23 "Middlewares/ST/STM32_USB_Device_Library/Core/Inc/usbd_core.h"
 1381              		.file 24 "Drivers/STM32F3xx_HAL_Driver/Inc/stm32f3xx_hal_cortex.h"
ARM GAS  C:\Users\pierr\AppData\Local\Temp\ccKdR2x8.s 			page 41

